(lp0
(dp1
S'int'
p2
S'shift 9'
p3
sS'double'
p4
S'shift 10'
p5
sS'void'
p6
S'shift 8'
p7
sS'bool'
p8
S'shift 7'
p9
sa(dp10
S'int'
p11
S'reduce ExternalDeclaration->Declaration'
p12
sS'double'
p13
S'reduce ExternalDeclaration->Declaration'
p14
sS'void'
p15
S'reduce ExternalDeclaration->Declaration'
p16
sS'bool'
p17
S'reduce ExternalDeclaration->Declaration'
p18
sS'$'
p19
S'reduce ExternalDeclaration->Declaration'
p20
sa(dp21
g2
S'shift 9'
p22
sg4
S'shift 10'
p23
sg6
S'shift 8'
p24
sg8
S'shift 7'
p25
sg19
S'reduce Program->Declarations'
p26
sa(dp27
g11
S'reduce Declarations->ExternalDeclaration'
p28
sg13
S'reduce Declarations->ExternalDeclaration'
p29
sg15
S'reduce Declarations->ExternalDeclaration'
p30
sg17
S'reduce Declarations->ExternalDeclaration'
p31
sg19
S'reduce Declarations->ExternalDeclaration'
p32
sa(dp33
g11
S'reduce ExternalDeclaration->FunDefinition'
p34
sg13
S'reduce ExternalDeclaration->FunDefinition'
p35
sg15
S'reduce ExternalDeclaration->FunDefinition'
p36
sg17
S'reduce ExternalDeclaration->FunDefinition'
p37
sg19
S'reduce ExternalDeclaration->FunDefinition'
p38
sa(dp39
g19
S'acc'
p40
sa(dp41
S'id'
p42
S'shift 16'
p43
sa(dp44
S'id'
p45
S'reduce TypeSpecifier->bool'
p46
sa(dp47
g45
S'reduce TypeSpecifier->void'
p48
sa(dp49
g45
S'reduce TypeSpecifier->int'
p50
sa(dp51
g45
S'reduce TypeSpecifier->double'
p52
sa(dp53
g11
S'reduce Declarations->Declarations ExternalDeclaration'
p54
sg13
S'reduce Declarations->Declarations ExternalDeclaration'
p55
sg15
S'reduce Declarations->Declarations ExternalDeclaration'
p56
sg17
S'reduce Declarations->Declarations ExternalDeclaration'
p57
sg19
S'reduce Declarations->Declarations ExternalDeclaration'
p58
sa(dp59
S';'
p60
S'reduce InitDeclarator->Declarator'
p61
sS'='
p62
S'shift 17'
p63
sS','
p64
S'reduce InitDeclarator->Declarator'
p65
sa(dp66
S'{'
p67
S'shift 19'
p68
sa(dp69
g60
S'shift 21'
p70
sg64
S'shift 20'
p71
sa(dp72
g60
S'reduce InitDeclarationList->InitDeclarator'
p73
sg64
S'reduce InitDeclarationList->InitDeclarator'
p74
sa(dp75
S'['
p76
S'shift 23'
p77
sS'('
p78
S'shift 22'
p79
sg60
S'reduce Declarator->id'
p80
sg62
S'reduce Declarator->id'
p81
sg64
S'reduce Declarator->id'
p82
sa(dp83
S'STRING'
p84
S'shift 36'
p85
sS'&'
p86
S'shift 31'
p87
sS'INT'
p88
S'shift 34'
p89
sg78
S'shift 32'
p90
sS'CHAR'
p91
S'shift 37'
p92
sS'DOUBLE'
p93
S'shift 35'
p94
sg67
S'shift 38'
p95
sg42
S'shift 33'
p96
sa(dp97
g11
S'reduce FunDefinition->TypeSpecifier FunDeclarator CompoundStmt'
p98
sg13
S'reduce FunDefinition->TypeSpecifier FunDeclarator CompoundStmt'
p99
sg15
S'reduce FunDefinition->TypeSpecifier FunDeclarator CompoundStmt'
p100
sg17
S'reduce FunDefinition->TypeSpecifier FunDeclarator CompoundStmt'
p101
sg19
S'reduce FunDefinition->TypeSpecifier FunDeclarator CompoundStmt'
p102
sa(dp103
g91
S'shift 37'
p104
sg93
S'shift 35'
p105
sS'return'
p106
S'shift 54'
p107
sg84
S'shift 36'
p108
sS'for'
p109
S'shift 56'
p110
sg86
S'shift 31'
p111
sg2
S'shift 9'
p112
sg78
S'shift 32'
p113
sg6
S'shift 8'
p114
sS'break'
p115
S'shift 52'
p116
sg88
S'shift 34'
p117
sS'while'
p118
S'shift 57'
p119
sS'continue'
p120
S'shift 53'
p121
sg8
S'shift 7'
p122
sg4
S'shift 10'
p123
sg67
S'shift 58'
p124
sg60
S'shift 51'
p125
sg42
S'shift 33'
p126
sS'if'
p127
S'shift 55'
p128
sa(dp129
g42
S'shift 60'
p130
sa(dp131
g11
S'reduce Declaration->TypeSpecifier InitDeclarationList ;'
p132
sg13
S'reduce Declaration->TypeSpecifier InitDeclarationList ;'
p133
sg15
S'reduce Declaration->TypeSpecifier InitDeclarationList ;'
p134
sg17
S'reduce Declaration->TypeSpecifier InitDeclarationList ;'
p135
sg19
S'reduce Declaration->TypeSpecifier InitDeclarationList ;'
p136
sa(dp137
S')'
p138
S'shift 64'
p139
sg2
S'shift 9'
p140
sg6
S'shift 8'
p141
sg8
S'shift 7'
p142
sg4
S'shift 10'
p143
sa(dp144
g84
S'shift 74'
p145
sg86
S'shift 69'
p146
sg88
S'shift 72'
p147
sg78
S'shift 70'
p148
sg91
S'shift 75'
p149
sg93
S'shift 73'
p150
sg42
S'shift 71'
p151
sa(dp152
S'>='
p153
S'shift 84'
p154
sS'=='
p155
S'shift 82'
p156
sS'+'
p157
S'shift 78'
p158
sS'<='
p159
S'shift 81'
p160
sS'-'
p161
S'shift 79'
p162
sg64
S'reduce RalExp->AddExp'
p163
sg60
S'reduce RalExp->AddExp'
p164
sS'!='
p165
S'shift 77'
p166
sS'<'
p167
S'shift 80'
p168
sS'>'
p169
S'shift 83'
p170
sa(dp171
g60
S'reduce Initializer->AssignExp'
p172
sg64
S'reduce Initializer->AssignExp'
p173
sa(dp174
g60
S'reduce InitDeclarator->Declarator = Initializer'
p175
sg64
S'reduce InitDeclarator->Declarator = Initializer'
p176
sa(dp177
S'*'
p178
S'shift 86'
p179
sS'%'
p180
S'shift 85'
p181
sS'>='
p182
S'reduce AddExp->MultipExp'
p183
sS'=='
p184
S'reduce AddExp->MultipExp'
p185
sg157
S'reduce AddExp->MultipExp'
p186
sS'<='
p187
S'reduce AddExp->MultipExp'
p188
sg161
S'reduce AddExp->MultipExp'
p189
sg64
S'reduce AddExp->MultipExp'
p190
sS'/'
p191
S'shift 87'
p192
sg60
S'reduce AddExp->MultipExp'
p193
sS'!='
p194
S'reduce AddExp->MultipExp'
p195
sg167
S'reduce AddExp->MultipExp'
p196
sg169
S'reduce AddExp->MultipExp'
p197
sa(dp198
g182
S'reduce MultipExp->PostfixExp'
p199
sg187
S'reduce MultipExp->PostfixExp'
p200
sg194
S'reduce MultipExp->PostfixExp'
p201
sg180
S'reduce MultipExp->PostfixExp'
p202
sg78
S'shift 89'
p203
sg157
S'reduce MultipExp->PostfixExp'
p204
sg178
S'reduce MultipExp->PostfixExp'
p205
sg161
S'reduce MultipExp->PostfixExp'
p206
sg64
S'reduce MultipExp->PostfixExp'
p207
sg191
S'reduce MultipExp->PostfixExp'
p208
sg60
S'reduce MultipExp->PostfixExp'
p209
sg62
S'shift 96'
p210
sg167
S'reduce MultipExp->PostfixExp'
p211
sg169
S'reduce MultipExp->PostfixExp'
p212
sS'*='
p213
S'shift 90'
p214
sg184
S'reduce MultipExp->PostfixExp'
p215
sg76
S'shift 97'
p216
sS'++'
p217
S'shift 91'
p218
sS'--'
p219
S'shift 93'
p220
sS'/='
p221
S'shift 95'
p222
sS'-='
p223
S'shift 94'
p224
sS'+='
p225
S'shift 92'
p226
sa(dp227
g182
S'reduce PostfixExp->PrimaryExp'
p228
sg187
S'reduce PostfixExp->PrimaryExp'
p229
sg194
S'reduce PostfixExp->PrimaryExp'
p230
sg180
S'reduce PostfixExp->PrimaryExp'
p231
sg78
S'reduce PostfixExp->PrimaryExp'
p232
sg157
S'reduce PostfixExp->PrimaryExp'
p233
sg178
S'reduce PostfixExp->PrimaryExp'
p234
sg161
S'reduce PostfixExp->PrimaryExp'
p235
sg64
S'reduce PostfixExp->PrimaryExp'
p236
sg191
S'reduce PostfixExp->PrimaryExp'
p237
sg60
S'reduce PostfixExp->PrimaryExp'
p238
sg62
S'reduce PostfixExp->PrimaryExp'
p239
sg167
S'reduce PostfixExp->PrimaryExp'
p240
sg169
S'reduce PostfixExp->PrimaryExp'
p241
sS'*='
p242
S'reduce PostfixExp->PrimaryExp'
p243
sg184
S'reduce PostfixExp->PrimaryExp'
p244
sg76
S'reduce PostfixExp->PrimaryExp'
p245
sS'++'
p246
S'reduce PostfixExp->PrimaryExp'
p247
sS'--'
p248
S'reduce PostfixExp->PrimaryExp'
p249
sS'/='
p250
S'reduce PostfixExp->PrimaryExp'
p251
sS'-='
p252
S'reduce PostfixExp->PrimaryExp'
p253
sS'+='
p254
S'reduce PostfixExp->PrimaryExp'
p255
sa(dp256
g60
S'reduce AssignExp->RalExp'
p257
sg64
S'reduce AssignExp->RalExp'
p258
sa(dp259
g84
S'shift 36'
p260
sg86
S'shift 31'
p261
sg88
S'shift 34'
p262
sg78
S'shift 32'
p263
sg91
S'shift 37'
p264
sg93
S'shift 35'
p265
sg42
S'shift 33'
p266
sa(dp267
g84
S'shift 111'
p268
sg86
S'shift 106'
p269
sg88
S'shift 109'
p270
sg78
S'shift 107'
p271
sg91
S'shift 112'
p272
sg93
S'shift 110'
p273
sg42
S'shift 108'
p274
sa(dp275
g182
S'reduce PrimaryExp->id'
p276
sg187
S'reduce PrimaryExp->id'
p277
sg194
S'reduce PrimaryExp->id'
p278
sg180
S'reduce PrimaryExp->id'
p279
sg78
S'reduce PrimaryExp->id'
p280
sg157
S'reduce PrimaryExp->id'
p281
sg178
S'reduce PrimaryExp->id'
p282
sg161
S'reduce PrimaryExp->id'
p283
sg64
S'reduce PrimaryExp->id'
p284
sg191
S'reduce PrimaryExp->id'
p285
sg60
S'reduce PrimaryExp->id'
p286
sg62
S'reduce PrimaryExp->id'
p287
sg167
S'reduce PrimaryExp->id'
p288
sg169
S'reduce PrimaryExp->id'
p289
sg242
S'reduce PrimaryExp->id'
p290
sg184
S'reduce PrimaryExp->id'
p291
sg76
S'reduce PrimaryExp->id'
p292
sg246
S'reduce PrimaryExp->id'
p293
sg248
S'reduce PrimaryExp->id'
p294
sg250
S'reduce PrimaryExp->id'
p295
sg252
S'reduce PrimaryExp->id'
p296
sg254
S'reduce PrimaryExp->id'
p297
sa(dp298
g182
S'reduce PrimaryExp->INT'
p299
sg187
S'reduce PrimaryExp->INT'
p300
sg194
S'reduce PrimaryExp->INT'
p301
sg180
S'reduce PrimaryExp->INT'
p302
sg78
S'reduce PrimaryExp->INT'
p303
sg157
S'reduce PrimaryExp->INT'
p304
sg178
S'reduce PrimaryExp->INT'
p305
sg161
S'reduce PrimaryExp->INT'
p306
sg64
S'reduce PrimaryExp->INT'
p307
sg191
S'reduce PrimaryExp->INT'
p308
sg60
S'reduce PrimaryExp->INT'
p309
sg62
S'reduce PrimaryExp->INT'
p310
sg167
S'reduce PrimaryExp->INT'
p311
sg169
S'reduce PrimaryExp->INT'
p312
sg242
S'reduce PrimaryExp->INT'
p313
sg184
S'reduce PrimaryExp->INT'
p314
sg76
S'reduce PrimaryExp->INT'
p315
sg246
S'reduce PrimaryExp->INT'
p316
sg248
S'reduce PrimaryExp->INT'
p317
sg250
S'reduce PrimaryExp->INT'
p318
sg252
S'reduce PrimaryExp->INT'
p319
sg254
S'reduce PrimaryExp->INT'
p320
sa(dp321
g182
S'reduce PrimaryExp->DOUBLE'
p322
sg187
S'reduce PrimaryExp->DOUBLE'
p323
sg194
S'reduce PrimaryExp->DOUBLE'
p324
sg180
S'reduce PrimaryExp->DOUBLE'
p325
sg78
S'reduce PrimaryExp->DOUBLE'
p326
sg157
S'reduce PrimaryExp->DOUBLE'
p327
sg178
S'reduce PrimaryExp->DOUBLE'
p328
sg161
S'reduce PrimaryExp->DOUBLE'
p329
sg64
S'reduce PrimaryExp->DOUBLE'
p330
sg191
S'reduce PrimaryExp->DOUBLE'
p331
sg60
S'reduce PrimaryExp->DOUBLE'
p332
sg62
S'reduce PrimaryExp->DOUBLE'
p333
sg167
S'reduce PrimaryExp->DOUBLE'
p334
sg169
S'reduce PrimaryExp->DOUBLE'
p335
sg242
S'reduce PrimaryExp->DOUBLE'
p336
sg184
S'reduce PrimaryExp->DOUBLE'
p337
sg76
S'reduce PrimaryExp->DOUBLE'
p338
sg246
S'reduce PrimaryExp->DOUBLE'
p339
sg248
S'reduce PrimaryExp->DOUBLE'
p340
sg250
S'reduce PrimaryExp->DOUBLE'
p341
sg252
S'reduce PrimaryExp->DOUBLE'
p342
sg254
S'reduce PrimaryExp->DOUBLE'
p343
sa(dp344
g182
S'reduce PrimaryExp->STRING'
p345
sg187
S'reduce PrimaryExp->STRING'
p346
sg194
S'reduce PrimaryExp->STRING'
p347
sg180
S'reduce PrimaryExp->STRING'
p348
sg78
S'reduce PrimaryExp->STRING'
p349
sg157
S'reduce PrimaryExp->STRING'
p350
sg178
S'reduce PrimaryExp->STRING'
p351
sg161
S'reduce PrimaryExp->STRING'
p352
sg64
S'reduce PrimaryExp->STRING'
p353
sg191
S'reduce PrimaryExp->STRING'
p354
sg60
S'reduce PrimaryExp->STRING'
p355
sg62
S'reduce PrimaryExp->STRING'
p356
sg167
S'reduce PrimaryExp->STRING'
p357
sg169
S'reduce PrimaryExp->STRING'
p358
sg242
S'reduce PrimaryExp->STRING'
p359
sg184
S'reduce PrimaryExp->STRING'
p360
sg76
S'reduce PrimaryExp->STRING'
p361
sg246
S'reduce PrimaryExp->STRING'
p362
sg248
S'reduce PrimaryExp->STRING'
p363
sg250
S'reduce PrimaryExp->STRING'
p364
sg252
S'reduce PrimaryExp->STRING'
p365
sg254
S'reduce PrimaryExp->STRING'
p366
sa(dp367
g182
S'reduce PrimaryExp->CHAR'
p368
sg187
S'reduce PrimaryExp->CHAR'
p369
sg194
S'reduce PrimaryExp->CHAR'
p370
sg180
S'reduce PrimaryExp->CHAR'
p371
sg78
S'reduce PrimaryExp->CHAR'
p372
sg157
S'reduce PrimaryExp->CHAR'
p373
sg178
S'reduce PrimaryExp->CHAR'
p374
sg161
S'reduce PrimaryExp->CHAR'
p375
sg64
S'reduce PrimaryExp->CHAR'
p376
sg191
S'reduce PrimaryExp->CHAR'
p377
sg60
S'reduce PrimaryExp->CHAR'
p378
sg62
S'reduce PrimaryExp->CHAR'
p379
sg167
S'reduce PrimaryExp->CHAR'
p380
sg169
S'reduce PrimaryExp->CHAR'
p381
sg242
S'reduce PrimaryExp->CHAR'
p382
sg184
S'reduce PrimaryExp->CHAR'
p383
sg76
S'reduce PrimaryExp->CHAR'
p384
sg246
S'reduce PrimaryExp->CHAR'
p385
sg248
S'reduce PrimaryExp->CHAR'
p386
sg250
S'reduce PrimaryExp->CHAR'
p387
sg252
S'reduce PrimaryExp->CHAR'
p388
sg254
S'reduce PrimaryExp->CHAR'
p389
sa(dp390
g84
S'shift 126'
p391
sg86
S'shift 121'
p392
sg88
S'shift 124'
p393
sg78
S'shift 122'
p394
sg91
S'shift 127'
p395
sg93
S'shift 125'
p396
sg67
S'shift 128'
p397
sg42
S'shift 123'
p398
sa(dp399
g60
S'reduce Exp->AssignExp'
p400
sg64
S'reduce Exp->AssignExp'
p401
sa(dp402
g91
S'shift 37'
p403
sg93
S'shift 35'
p404
sg106
S'shift 54'
p405
sg84
S'shift 36'
p406
sg109
S'shift 56'
p407
sg86
S'shift 31'
p408
sg2
S'shift 9'
p409
sg78
S'shift 32'
p410
sg6
S'shift 8'
p411
sg115
S'shift 52'
p412
sg88
S'shift 34'
p413
sg118
S'shift 57'
p414
sg120
S'shift 53'
p415
sg8
S'shift 7'
p416
sg4
S'shift 10'
p417
sg67
S'shift 58'
p418
sg60
S'shift 51'
p419
sS'}'
p420
S'reduce BlockItemList->BlockItem'
p421
sg42
S'shift 33'
p422
sg127
S'shift 55'
p423
sa(dp424
g420
S'shift 130'
p425
sa(dp426
S'break'
p427
S'reduce Stmt->CompoundStmt'
p428
sS'return'
p429
S'reduce Stmt->CompoundStmt'
p430
sS'STRING'
p431
S'reduce Stmt->CompoundStmt'
p432
sS'for'
p433
S'reduce Stmt->CompoundStmt'
p434
sg86
S'reduce Stmt->CompoundStmt'
p435
sg11
S'reduce Stmt->CompoundStmt'
p436
sg13
S'reduce Stmt->CompoundStmt'
p437
sg15
S'reduce Stmt->CompoundStmt'
p438
sS'id'
p439
S'reduce Stmt->CompoundStmt'
p440
sS'CHAR'
p441
S'reduce Stmt->CompoundStmt'
p442
sS'INT'
p443
S'reduce Stmt->CompoundStmt'
p444
sS'while'
p445
S'reduce Stmt->CompoundStmt'
p446
sS'continue'
p447
S'reduce Stmt->CompoundStmt'
p448
sg17
S'reduce Stmt->CompoundStmt'
p449
sg78
S'reduce Stmt->CompoundStmt'
p450
sS'DOUBLE'
p451
S'reduce Stmt->CompoundStmt'
p452
sg67
S'reduce Stmt->CompoundStmt'
p453
sg420
S'reduce Stmt->CompoundStmt'
p454
sg60
S'reduce Stmt->CompoundStmt'
p455
sS'if'
p456
S'reduce Stmt->CompoundStmt'
p457
sa(dp458
g427
S'reduce BlockItem->Declaration'
p459
sg429
S'reduce BlockItem->Declaration'
p460
sg431
S'reduce BlockItem->Declaration'
p461
sg433
S'reduce BlockItem->Declaration'
p462
sg86
S'reduce BlockItem->Declaration'
p463
sg11
S'reduce BlockItem->Declaration'
p464
sg13
S'reduce BlockItem->Declaration'
p465
sg15
S'reduce BlockItem->Declaration'
p466
sg439
S'reduce BlockItem->Declaration'
p467
sg441
S'reduce BlockItem->Declaration'
p468
sg443
S'reduce BlockItem->Declaration'
p469
sg445
S'reduce BlockItem->Declaration'
p470
sg447
S'reduce BlockItem->Declaration'
p471
sg17
S'reduce BlockItem->Declaration'
p472
sg78
S'reduce BlockItem->Declaration'
p473
sg451
S'reduce BlockItem->Declaration'
p474
sg67
S'reduce BlockItem->Declaration'
p475
sg420
S'reduce BlockItem->Declaration'
p476
sg60
S'reduce BlockItem->Declaration'
p477
sg456
S'reduce BlockItem->Declaration'
p478
sa(dp479
g60
S'shift 132'
p480
sg64
S'shift 131'
p481
sa(dp482
g427
S'reduce Stmt->ExpStmt'
p483
sg429
S'reduce Stmt->ExpStmt'
p484
sg431
S'reduce Stmt->ExpStmt'
p485
sg433
S'reduce Stmt->ExpStmt'
p486
sg86
S'reduce Stmt->ExpStmt'
p487
sg11
S'reduce Stmt->ExpStmt'
p488
sg13
S'reduce Stmt->ExpStmt'
p489
sg15
S'reduce Stmt->ExpStmt'
p490
sg439
S'reduce Stmt->ExpStmt'
p491
sg441
S'reduce Stmt->ExpStmt'
p492
sg443
S'reduce Stmt->ExpStmt'
p493
sg445
S'reduce Stmt->ExpStmt'
p494
sg447
S'reduce Stmt->ExpStmt'
p495
sg17
S'reduce Stmt->ExpStmt'
p496
sg78
S'reduce Stmt->ExpStmt'
p497
sg451
S'reduce Stmt->ExpStmt'
p498
sg67
S'reduce Stmt->ExpStmt'
p499
sg420
S'reduce Stmt->ExpStmt'
p500
sg60
S'reduce Stmt->ExpStmt'
p501
sg456
S'reduce Stmt->ExpStmt'
p502
sa(dp503
g427
S'reduce Stmt->IterationStmt'
p504
sg429
S'reduce Stmt->IterationStmt'
p505
sg431
S'reduce Stmt->IterationStmt'
p506
sg433
S'reduce Stmt->IterationStmt'
p507
sg86
S'reduce Stmt->IterationStmt'
p508
sg11
S'reduce Stmt->IterationStmt'
p509
sg13
S'reduce Stmt->IterationStmt'
p510
sg15
S'reduce Stmt->IterationStmt'
p511
sg439
S'reduce Stmt->IterationStmt'
p512
sg441
S'reduce Stmt->IterationStmt'
p513
sg443
S'reduce Stmt->IterationStmt'
p514
sg445
S'reduce Stmt->IterationStmt'
p515
sg447
S'reduce Stmt->IterationStmt'
p516
sg17
S'reduce Stmt->IterationStmt'
p517
sg78
S'reduce Stmt->IterationStmt'
p518
sg451
S'reduce Stmt->IterationStmt'
p519
sg67
S'reduce Stmt->IterationStmt'
p520
sg420
S'reduce Stmt->IterationStmt'
p521
sg60
S'reduce Stmt->IterationStmt'
p522
sg456
S'reduce Stmt->IterationStmt'
p523
sa(dp524
g427
S'reduce Stmt->JmpStmt'
p525
sg429
S'reduce Stmt->JmpStmt'
p526
sg431
S'reduce Stmt->JmpStmt'
p527
sg433
S'reduce Stmt->JmpStmt'
p528
sg86
S'reduce Stmt->JmpStmt'
p529
sg11
S'reduce Stmt->JmpStmt'
p530
sg13
S'reduce Stmt->JmpStmt'
p531
sg15
S'reduce Stmt->JmpStmt'
p532
sg439
S'reduce Stmt->JmpStmt'
p533
sg441
S'reduce Stmt->JmpStmt'
p534
sg443
S'reduce Stmt->JmpStmt'
p535
sg445
S'reduce Stmt->JmpStmt'
p536
sg447
S'reduce Stmt->JmpStmt'
p537
sg17
S'reduce Stmt->JmpStmt'
p538
sg78
S'reduce Stmt->JmpStmt'
p539
sg451
S'reduce Stmt->JmpStmt'
p540
sg67
S'reduce Stmt->JmpStmt'
p541
sg420
S'reduce Stmt->JmpStmt'
p542
sg60
S'reduce Stmt->JmpStmt'
p543
sg456
S'reduce Stmt->JmpStmt'
p544
sa(dp545
g427
S'reduce Stmt->SelectStmt'
p546
sg429
S'reduce Stmt->SelectStmt'
p547
sg431
S'reduce Stmt->SelectStmt'
p548
sg433
S'reduce Stmt->SelectStmt'
p549
sg86
S'reduce Stmt->SelectStmt'
p550
sg11
S'reduce Stmt->SelectStmt'
p551
sg13
S'reduce Stmt->SelectStmt'
p552
sg15
S'reduce Stmt->SelectStmt'
p553
sg439
S'reduce Stmt->SelectStmt'
p554
sg441
S'reduce Stmt->SelectStmt'
p555
sg443
S'reduce Stmt->SelectStmt'
p556
sg445
S'reduce Stmt->SelectStmt'
p557
sg447
S'reduce Stmt->SelectStmt'
p558
sg17
S'reduce Stmt->SelectStmt'
p559
sg78
S'reduce Stmt->SelectStmt'
p560
sg451
S'reduce Stmt->SelectStmt'
p561
sg67
S'reduce Stmt->SelectStmt'
p562
sg420
S'reduce Stmt->SelectStmt'
p563
sg60
S'reduce Stmt->SelectStmt'
p564
sg456
S'reduce Stmt->SelectStmt'
p565
sa(dp566
g427
S'reduce BlockItem->Stmt'
p567
sg429
S'reduce BlockItem->Stmt'
p568
sg431
S'reduce BlockItem->Stmt'
p569
sg433
S'reduce BlockItem->Stmt'
p570
sg86
S'reduce BlockItem->Stmt'
p571
sg11
S'reduce BlockItem->Stmt'
p572
sg13
S'reduce BlockItem->Stmt'
p573
sg15
S'reduce BlockItem->Stmt'
p574
sg439
S'reduce BlockItem->Stmt'
p575
sg441
S'reduce BlockItem->Stmt'
p576
sg443
S'reduce BlockItem->Stmt'
p577
sg445
S'reduce BlockItem->Stmt'
p578
sg447
S'reduce BlockItem->Stmt'
p579
sg17
S'reduce BlockItem->Stmt'
p580
sg78
S'reduce BlockItem->Stmt'
p581
sg451
S'reduce BlockItem->Stmt'
p582
sg67
S'reduce BlockItem->Stmt'
p583
sg420
S'reduce BlockItem->Stmt'
p584
sg60
S'reduce BlockItem->Stmt'
p585
sg456
S'reduce BlockItem->Stmt'
p586
sa(dp587
g42
S'shift 60'
p588
sa(dp589
g427
S'reduce ExpStmt->;'
p590
sg429
S'reduce ExpStmt->;'
p591
sg431
S'reduce ExpStmt->;'
p592
sg433
S'reduce ExpStmt->;'
p593
sg86
S'reduce ExpStmt->;'
p594
sg11
S'reduce ExpStmt->;'
p595
sg13
S'reduce ExpStmt->;'
p596
sg15
S'reduce ExpStmt->;'
p597
sg439
S'reduce ExpStmt->;'
p598
sg441
S'reduce ExpStmt->;'
p599
sg443
S'reduce ExpStmt->;'
p600
sg445
S'reduce ExpStmt->;'
p601
sg447
S'reduce ExpStmt->;'
p602
sg17
S'reduce ExpStmt->;'
p603
sg78
S'reduce ExpStmt->;'
p604
sg451
S'reduce ExpStmt->;'
p605
sg67
S'reduce ExpStmt->;'
p606
sg420
S'reduce ExpStmt->;'
p607
sg60
S'reduce ExpStmt->;'
p608
sg456
S'reduce ExpStmt->;'
p609
sa(dp610
g60
S'shift 134'
p611
sa(dp612
g60
S'shift 135'
p613
sa(dp614
g84
S'shift 36'
p615
sg86
S'shift 31'
p616
sg88
S'shift 34'
p617
sg78
S'shift 32'
p618
sg91
S'shift 37'
p619
sg93
S'shift 35'
p620
sg60
S'shift 137'
p621
sg42
S'shift 33'
p622
sa(dp623
g78
S'shift 138'
p624
sa(dp625
g78
S'shift 139'
p626
sa(dp627
g78
S'shift 140'
p628
sa(dp629
g91
S'shift 37'
p630
sg93
S'shift 35'
p631
sg106
S'shift 54'
p632
sg84
S'shift 36'
p633
sg109
S'shift 56'
p634
sg86
S'shift 31'
p635
sg2
S'shift 9'
p636
sg78
S'shift 32'
p637
sg6
S'shift 8'
p638
sg115
S'shift 52'
p639
sg88
S'shift 34'
p640
sg118
S'shift 57'
p641
sg120
S'shift 53'
p642
sg8
S'shift 7'
p643
sg4
S'shift 10'
p644
sg67
S'shift 58'
p645
sg60
S'shift 51'
p646
sg42
S'shift 33'
p647
sg127
S'shift 55'
p648
sa(dp649
g60
S'reduce InitDeclarationList->InitDeclarationList , InitDeclarator'
p650
sg64
S'reduce InitDeclarationList->InitDeclarationList , InitDeclarator'
p651
sa(dp652
g76
S'shift 23'
p653
sg60
S'reduce Declarator->id'
p654
sg62
S'reduce Declarator->id'
p655
sg64
S'reduce Declarator->id'
p656
sa(dp657
g138
S'reduce ParamList->ParamDeclaration'
p658
sg64
S'reduce ParamList->ParamDeclaration'
p659
sa(dp660
g138
S'shift 142'
p661
sg64
S'shift 143'
p662
sa(dp663
g42
S'shift 144'
p664
sa(dp665
g67
S'reduce FunDeclarator->id ( )'
p666
sa(dp667
S']'
p668
S'shift 147'
p669
sg157
S'shift 145'
p670
sg161
S'shift 146'
p671
sa(dp672
g180
S'shift 148'
p673
sg157
S'reduce AddExp->MultipExp'
p674
sg178
S'shift 149'
p675
sg161
S'reduce AddExp->MultipExp'
p676
sg191
S'shift 150'
p677
sg668
S'reduce AddExp->MultipExp'
p678
sa(dp679
g180
S'reduce MultipExp->PostfixExp'
p680
sg217
S'shift 152'
p681
sg78
S'shift 151'
p682
sg157
S'reduce MultipExp->PostfixExp'
p683
sg178
S'reduce MultipExp->PostfixExp'
p684
sg161
S'reduce MultipExp->PostfixExp'
p685
sg191
S'reduce MultipExp->PostfixExp'
p686
sg219
S'shift 153'
p687
sg76
S'shift 154'
p688
sg668
S'reduce MultipExp->PostfixExp'
p689
sa(dp690
g180
S'reduce PostfixExp->PrimaryExp'
p691
sg246
S'reduce PostfixExp->PrimaryExp'
p692
sg78
S'reduce PostfixExp->PrimaryExp'
p693
sg157
S'reduce PostfixExp->PrimaryExp'
p694
sg178
S'reduce PostfixExp->PrimaryExp'
p695
sg161
S'reduce PostfixExp->PrimaryExp'
p696
sg191
S'reduce PostfixExp->PrimaryExp'
p697
sg248
S'reduce PostfixExp->PrimaryExp'
p698
sg76
S'reduce PostfixExp->PrimaryExp'
p699
sg668
S'reduce PostfixExp->PrimaryExp'
p700
sa(dp701
g84
S'shift 74'
p702
sg86
S'shift 69'
p703
sg88
S'shift 72'
p704
sg78
S'shift 70'
p705
sg91
S'shift 75'
p706
sg93
S'shift 73'
p707
sg42
S'shift 71'
p708
sa(dp709
g84
S'shift 111'
p710
sg86
S'shift 106'
p711
sg88
S'shift 109'
p712
sg78
S'shift 107'
p713
sg91
S'shift 112'
p714
sg93
S'shift 110'
p715
sg42
S'shift 108'
p716
sa(dp717
g180
S'reduce PrimaryExp->id'
p718
sg246
S'reduce PrimaryExp->id'
p719
sg78
S'reduce PrimaryExp->id'
p720
sg157
S'reduce PrimaryExp->id'
p721
sg178
S'reduce PrimaryExp->id'
p722
sg161
S'reduce PrimaryExp->id'
p723
sg191
S'reduce PrimaryExp->id'
p724
sg248
S'reduce PrimaryExp->id'
p725
sg76
S'reduce PrimaryExp->id'
p726
sg668
S'reduce PrimaryExp->id'
p727
sa(dp728
g180
S'reduce PrimaryExp->INT'
p729
sg246
S'reduce PrimaryExp->INT'
p730
sg78
S'reduce PrimaryExp->INT'
p731
sg157
S'reduce PrimaryExp->INT'
p732
sg178
S'reduce PrimaryExp->INT'
p733
sg161
S'reduce PrimaryExp->INT'
p734
sg191
S'reduce PrimaryExp->INT'
p735
sg248
S'reduce PrimaryExp->INT'
p736
sg76
S'reduce PrimaryExp->INT'
p737
sg668
S'reduce PrimaryExp->INT'
p738
sa(dp739
g180
S'reduce PrimaryExp->DOUBLE'
p740
sg246
S'reduce PrimaryExp->DOUBLE'
p741
sg78
S'reduce PrimaryExp->DOUBLE'
p742
sg157
S'reduce PrimaryExp->DOUBLE'
p743
sg178
S'reduce PrimaryExp->DOUBLE'
p744
sg161
S'reduce PrimaryExp->DOUBLE'
p745
sg191
S'reduce PrimaryExp->DOUBLE'
p746
sg248
S'reduce PrimaryExp->DOUBLE'
p747
sg76
S'reduce PrimaryExp->DOUBLE'
p748
sg668
S'reduce PrimaryExp->DOUBLE'
p749
sa(dp750
g180
S'reduce PrimaryExp->STRING'
p751
sg246
S'reduce PrimaryExp->STRING'
p752
sg78
S'reduce PrimaryExp->STRING'
p753
sg157
S'reduce PrimaryExp->STRING'
p754
sg178
S'reduce PrimaryExp->STRING'
p755
sg161
S'reduce PrimaryExp->STRING'
p756
sg191
S'reduce PrimaryExp->STRING'
p757
sg248
S'reduce PrimaryExp->STRING'
p758
sg76
S'reduce PrimaryExp->STRING'
p759
sg668
S'reduce PrimaryExp->STRING'
p760
sa(dp761
g180
S'reduce PrimaryExp->CHAR'
p762
sg246
S'reduce PrimaryExp->CHAR'
p763
sg78
S'reduce PrimaryExp->CHAR'
p764
sg157
S'reduce PrimaryExp->CHAR'
p765
sg178
S'reduce PrimaryExp->CHAR'
p766
sg161
S'reduce PrimaryExp->CHAR'
p767
sg191
S'reduce PrimaryExp->CHAR'
p768
sg248
S'reduce PrimaryExp->CHAR'
p769
sg76
S'reduce PrimaryExp->CHAR'
p770
sg668
S'reduce PrimaryExp->CHAR'
p771
sa(dp772
g84
S'shift 165'
p773
sg86
S'shift 160'
p774
sg88
S'shift 163'
p775
sg78
S'shift 161'
p776
sg91
S'shift 166'
p777
sg93
S'shift 164'
p778
sg42
S'shift 162'
p779
sa(dp780
g431
S'reduce RalOp->!='
p781
sg86
S'reduce RalOp->!='
p782
sg443
S'reduce RalOp->!='
p783
sg451
S'reduce RalOp->!='
p784
sg441
S'reduce RalOp->!='
p785
sg78
S'reduce RalOp->!='
p786
sg439
S'reduce RalOp->!='
p787
sa(dp788
g84
S'shift 165'
p789
sg86
S'shift 160'
p790
sg88
S'shift 163'
p791
sg78
S'shift 161'
p792
sg91
S'shift 166'
p793
sg93
S'shift 164'
p794
sg42
S'shift 162'
p795
sa(dp796
g84
S'shift 165'
p797
sg86
S'shift 160'
p798
sg88
S'shift 163'
p799
sg78
S'shift 161'
p800
sg91
S'shift 166'
p801
sg93
S'shift 164'
p802
sg42
S'shift 162'
p803
sa(dp804
g431
S'reduce RalOp-><'
p805
sg86
S'reduce RalOp-><'
p806
sg443
S'reduce RalOp-><'
p807
sg451
S'reduce RalOp-><'
p808
sg441
S'reduce RalOp-><'
p809
sg78
S'reduce RalOp-><'
p810
sg439
S'reduce RalOp-><'
p811
sa(dp812
g431
S'reduce RalOp-><='
p813
sg86
S'reduce RalOp-><='
p814
sg443
S'reduce RalOp-><='
p815
sg451
S'reduce RalOp-><='
p816
sg441
S'reduce RalOp-><='
p817
sg78
S'reduce RalOp-><='
p818
sg439
S'reduce RalOp-><='
p819
sa(dp820
g431
S'reduce RalOp->=='
p821
sg86
S'reduce RalOp->=='
p822
sg443
S'reduce RalOp->=='
p823
sg451
S'reduce RalOp->=='
p824
sg441
S'reduce RalOp->=='
p825
sg78
S'reduce RalOp->=='
p826
sg439
S'reduce RalOp->=='
p827
sa(dp828
g431
S'reduce RalOp->>'
p829
sg86
S'reduce RalOp->>'
p830
sg443
S'reduce RalOp->>'
p831
sg451
S'reduce RalOp->>'
p832
sg441
S'reduce RalOp->>'
p833
sg78
S'reduce RalOp->>'
p834
sg439
S'reduce RalOp->>'
p835
sa(dp836
g431
S'reduce RalOp->>='
p837
sg86
S'reduce RalOp->>='
p838
sg443
S'reduce RalOp->>='
p839
sg451
S'reduce RalOp->>='
p840
sg441
S'reduce RalOp->>='
p841
sg78
S'reduce RalOp->>='
p842
sg439
S'reduce RalOp->>='
p843
sa(dp844
g84
S'shift 165'
p845
sg86
S'shift 160'
p846
sg88
S'shift 163'
p847
sg78
S'shift 161'
p848
sg91
S'shift 166'
p849
sg93
S'shift 164'
p850
sg42
S'shift 162'
p851
sa(dp852
g84
S'shift 165'
p853
sg86
S'shift 160'
p854
sg88
S'shift 163'
p855
sg78
S'shift 161'
p856
sg91
S'shift 166'
p857
sg93
S'shift 164'
p858
sg42
S'shift 162'
p859
sa(dp860
g84
S'shift 165'
p861
sg86
S'shift 160'
p862
sg88
S'shift 163'
p863
sg78
S'shift 161'
p864
sg91
S'shift 166'
p865
sg93
S'shift 164'
p866
sg42
S'shift 162'
p867
sa(dp868
g84
S'shift 36'
p869
sg86
S'shift 31'
p870
sg88
S'shift 34'
p871
sg78
S'shift 32'
p872
sg91
S'shift 37'
p873
sg93
S'shift 35'
p874
sg42
S'shift 33'
p875
sa(dp876
g84
S'shift 111'
p877
sg86
S'shift 106'
p878
sg138
S'shift 175'
p879
sg78
S'shift 107'
p880
sg91
S'shift 112'
p881
sg88
S'shift 109'
p882
sg93
S'shift 110'
p883
sg42
S'shift 108'
p884
sa(dp885
g431
S'reduce AssignOp->*='
p886
sg86
S'reduce AssignOp->*='
p887
sg443
S'reduce AssignOp->*='
p888
sg451
S'reduce AssignOp->*='
p889
sg441
S'reduce AssignOp->*='
p890
sg78
S'reduce AssignOp->*='
p891
sg439
S'reduce AssignOp->*='
p892
sa(dp893
g182
S'reduce PostfixExp->PostfixExp ++'
p894
sg187
S'reduce PostfixExp->PostfixExp ++'
p895
sg194
S'reduce PostfixExp->PostfixExp ++'
p896
sg180
S'reduce PostfixExp->PostfixExp ++'
p897
sg78
S'reduce PostfixExp->PostfixExp ++'
p898
sg157
S'reduce PostfixExp->PostfixExp ++'
p899
sg178
S'reduce PostfixExp->PostfixExp ++'
p900
sg161
S'reduce PostfixExp->PostfixExp ++'
p901
sg64
S'reduce PostfixExp->PostfixExp ++'
p902
sg191
S'reduce PostfixExp->PostfixExp ++'
p903
sg60
S'reduce PostfixExp->PostfixExp ++'
p904
sg62
S'reduce PostfixExp->PostfixExp ++'
p905
sg167
S'reduce PostfixExp->PostfixExp ++'
p906
sg169
S'reduce PostfixExp->PostfixExp ++'
p907
sg242
S'reduce PostfixExp->PostfixExp ++'
p908
sg184
S'reduce PostfixExp->PostfixExp ++'
p909
sg76
S'reduce PostfixExp->PostfixExp ++'
p910
sg246
S'reduce PostfixExp->PostfixExp ++'
p911
sg248
S'reduce PostfixExp->PostfixExp ++'
p912
sg250
S'reduce PostfixExp->PostfixExp ++'
p913
sg252
S'reduce PostfixExp->PostfixExp ++'
p914
sg254
S'reduce PostfixExp->PostfixExp ++'
p915
sa(dp916
g431
S'reduce AssignOp->+='
p917
sg86
S'reduce AssignOp->+='
p918
sg443
S'reduce AssignOp->+='
p919
sg451
S'reduce AssignOp->+='
p920
sg441
S'reduce AssignOp->+='
p921
sg78
S'reduce AssignOp->+='
p922
sg439
S'reduce AssignOp->+='
p923
sa(dp924
g182
S'reduce PostfixExp->PostfixExp --'
p925
sg187
S'reduce PostfixExp->PostfixExp --'
p926
sg194
S'reduce PostfixExp->PostfixExp --'
p927
sg180
S'reduce PostfixExp->PostfixExp --'
p928
sg78
S'reduce PostfixExp->PostfixExp --'
p929
sg157
S'reduce PostfixExp->PostfixExp --'
p930
sg178
S'reduce PostfixExp->PostfixExp --'
p931
sg161
S'reduce PostfixExp->PostfixExp --'
p932
sg64
S'reduce PostfixExp->PostfixExp --'
p933
sg191
S'reduce PostfixExp->PostfixExp --'
p934
sg60
S'reduce PostfixExp->PostfixExp --'
p935
sg62
S'reduce PostfixExp->PostfixExp --'
p936
sg167
S'reduce PostfixExp->PostfixExp --'
p937
sg169
S'reduce PostfixExp->PostfixExp --'
p938
sg242
S'reduce PostfixExp->PostfixExp --'
p939
sg184
S'reduce PostfixExp->PostfixExp --'
p940
sg76
S'reduce PostfixExp->PostfixExp --'
p941
sg246
S'reduce PostfixExp->PostfixExp --'
p942
sg248
S'reduce PostfixExp->PostfixExp --'
p943
sg250
S'reduce PostfixExp->PostfixExp --'
p944
sg252
S'reduce PostfixExp->PostfixExp --'
p945
sg254
S'reduce PostfixExp->PostfixExp --'
p946
sa(dp947
g431
S'reduce AssignOp->-='
p948
sg86
S'reduce AssignOp->-='
p949
sg443
S'reduce AssignOp->-='
p950
sg451
S'reduce AssignOp->-='
p951
sg441
S'reduce AssignOp->-='
p952
sg78
S'reduce AssignOp->-='
p953
sg439
S'reduce AssignOp->-='
p954
sa(dp955
g431
S'reduce AssignOp->/='
p956
sg86
S'reduce AssignOp->/='
p957
sg443
S'reduce AssignOp->/='
p958
sg451
S'reduce AssignOp->/='
p959
sg441
S'reduce AssignOp->/='
p960
sg78
S'reduce AssignOp->/='
p961
sg439
S'reduce AssignOp->/='
p962
sa(dp963
g431
S'reduce AssignOp->='
p964
sg86
S'reduce AssignOp->='
p965
sg443
S'reduce AssignOp->='
p966
sg451
S'reduce AssignOp->='
p967
sg441
S'reduce AssignOp->='
p968
sg78
S'reduce AssignOp->='
p969
sg439
S'reduce AssignOp->='
p970
sa(dp971
g84
S'shift 74'
p972
sg86
S'shift 69'
p973
sg88
S'shift 72'
p974
sg78
S'shift 70'
p975
sg91
S'shift 75'
p976
sg93
S'shift 73'
p977
sg42
S'shift 71'
p978
sa(dp979
g182
S'reduce PostfixExp->& PostfixExp'
p980
sg187
S'reduce PostfixExp->& PostfixExp'
p981
sg194
S'reduce PostfixExp->& PostfixExp'
p982
sg180
S'reduce PostfixExp->& PostfixExp'
p983
sg78
S'reduce PostfixExp->& PostfixExp'
p984
sg157
S'reduce PostfixExp->& PostfixExp'
p985
sg178
S'reduce PostfixExp->& PostfixExp'
p986
sg161
S'reduce PostfixExp->& PostfixExp'
p987
sg64
S'reduce PostfixExp->& PostfixExp'
p988
sg191
S'reduce PostfixExp->& PostfixExp'
p989
sg60
S'reduce PostfixExp->& PostfixExp'
p990
sg62
S'reduce PostfixExp->& PostfixExp'
p991
sg167
S'reduce PostfixExp->& PostfixExp'
p992
sg169
S'reduce PostfixExp->& PostfixExp'
p993
sg242
S'reduce PostfixExp->& PostfixExp'
p994
sg184
S'reduce PostfixExp->& PostfixExp'
p995
sg76
S'reduce PostfixExp->& PostfixExp'
p996
sg246
S'reduce PostfixExp->& PostfixExp'
p997
sg248
S'reduce PostfixExp->& PostfixExp'
p998
sg250
S'reduce PostfixExp->& PostfixExp'
p999
sg252
S'reduce PostfixExp->& PostfixExp'
p1000
sg254
S'reduce PostfixExp->& PostfixExp'
p1001
sa(dp1002
g153
S'shift 84'
p1003
sg138
S'reduce RalExp->AddExp'
p1004
sg157
S'shift 178'
p1005
sg159
S'shift 81'
p1006
sg161
S'shift 179'
p1007
sg64
S'reduce RalExp->AddExp'
p1008
sg155
S'shift 82'
p1009
sg165
S'shift 77'
p1010
sg167
S'shift 80'
p1011
sg169
S'shift 83'
p1012
sa(dp1013
g138
S'reduce Exp->AssignExp'
p1014
sg64
S'reduce Exp->AssignExp'
p1015
sa(dp1016
g138
S'shift 180'
p1017
sg64
S'shift 181'
p1018
sa(dp1019
g178
S'shift 183'
p1020
sg180
S'shift 182'
p1021
sg182
S'reduce AddExp->MultipExp'
p1022
sg138
S'reduce AddExp->MultipExp'
p1023
sg157
S'reduce AddExp->MultipExp'
p1024
sg187
S'reduce AddExp->MultipExp'
p1025
sg161
S'reduce AddExp->MultipExp'
p1026
sg64
S'reduce AddExp->MultipExp'
p1027
sg191
S'shift 184'
p1028
sg184
S'reduce AddExp->MultipExp'
p1029
sg194
S'reduce AddExp->MultipExp'
p1030
sg167
S'reduce AddExp->MultipExp'
p1031
sg169
S'reduce AddExp->MultipExp'
p1032
sa(dp1033
g182
S'reduce MultipExp->PostfixExp'
p1034
sg187
S'reduce MultipExp->PostfixExp'
p1035
sg194
S'reduce MultipExp->PostfixExp'
p1036
sg180
S'reduce MultipExp->PostfixExp'
p1037
sg138
S'reduce MultipExp->PostfixExp'
p1038
sg78
S'shift 186'
p1039
sg157
S'reduce MultipExp->PostfixExp'
p1040
sg178
S'reduce MultipExp->PostfixExp'
p1041
sg161
S'reduce MultipExp->PostfixExp'
p1042
sg64
S'reduce MultipExp->PostfixExp'
p1043
sg191
S'reduce MultipExp->PostfixExp'
p1044
sg62
S'shift 96'
p1045
sg167
S'reduce MultipExp->PostfixExp'
p1046
sg169
S'reduce MultipExp->PostfixExp'
p1047
sg213
S'shift 90'
p1048
sg184
S'reduce MultipExp->PostfixExp'
p1049
sg76
S'shift 189'
p1050
sg219
S'shift 188'
p1051
sg217
S'shift 187'
p1052
sg221
S'shift 95'
p1053
sg223
S'shift 94'
p1054
sg225
S'shift 92'
p1055
sa(dp1056
g182
S'reduce PostfixExp->PrimaryExp'
p1057
sg187
S'reduce PostfixExp->PrimaryExp'
p1058
sg194
S'reduce PostfixExp->PrimaryExp'
p1059
sg180
S'reduce PostfixExp->PrimaryExp'
p1060
sg138
S'reduce PostfixExp->PrimaryExp'
p1061
sg78
S'reduce PostfixExp->PrimaryExp'
p1062
sg157
S'reduce PostfixExp->PrimaryExp'
p1063
sg178
S'reduce PostfixExp->PrimaryExp'
p1064
sg161
S'reduce PostfixExp->PrimaryExp'
p1065
sg64
S'reduce PostfixExp->PrimaryExp'
p1066
sg191
S'reduce PostfixExp->PrimaryExp'
p1067
sg62
S'reduce PostfixExp->PrimaryExp'
p1068
sg167
S'reduce PostfixExp->PrimaryExp'
p1069
sg169
S'reduce PostfixExp->PrimaryExp'
p1070
sg242
S'reduce PostfixExp->PrimaryExp'
p1071
sg184
S'reduce PostfixExp->PrimaryExp'
p1072
sg76
S'reduce PostfixExp->PrimaryExp'
p1073
sg246
S'reduce PostfixExp->PrimaryExp'
p1074
sg248
S'reduce PostfixExp->PrimaryExp'
p1075
sg250
S'reduce PostfixExp->PrimaryExp'
p1076
sg252
S'reduce PostfixExp->PrimaryExp'
p1077
sg254
S'reduce PostfixExp->PrimaryExp'
p1078
sa(dp1079
g138
S'reduce AssignExp->RalExp'
p1080
sg64
S'reduce AssignExp->RalExp'
p1081
sa(dp1082
g84
S'shift 111'
p1083
sg86
S'shift 106'
p1084
sg88
S'shift 109'
p1085
sg78
S'shift 107'
p1086
sg91
S'shift 112'
p1087
sg93
S'shift 110'
p1088
sg42
S'shift 108'
p1089
sa(dp1090
g84
S'shift 111'
p1091
sg86
S'shift 106'
p1092
sg88
S'shift 109'
p1093
sg78
S'shift 107'
p1094
sg91
S'shift 112'
p1095
sg93
S'shift 110'
p1096
sg42
S'shift 108'
p1097
sa(dp1098
g182
S'reduce PrimaryExp->id'
p1099
sg187
S'reduce PrimaryExp->id'
p1100
sg194
S'reduce PrimaryExp->id'
p1101
sg180
S'reduce PrimaryExp->id'
p1102
sg138
S'reduce PrimaryExp->id'
p1103
sg78
S'reduce PrimaryExp->id'
p1104
sg157
S'reduce PrimaryExp->id'
p1105
sg178
S'reduce PrimaryExp->id'
p1106
sg161
S'reduce PrimaryExp->id'
p1107
sg64
S'reduce PrimaryExp->id'
p1108
sg191
S'reduce PrimaryExp->id'
p1109
sg62
S'reduce PrimaryExp->id'
p1110
sg167
S'reduce PrimaryExp->id'
p1111
sg169
S'reduce PrimaryExp->id'
p1112
sg242
S'reduce PrimaryExp->id'
p1113
sg184
S'reduce PrimaryExp->id'
p1114
sg76
S'reduce PrimaryExp->id'
p1115
sg246
S'reduce PrimaryExp->id'
p1116
sg248
S'reduce PrimaryExp->id'
p1117
sg250
S'reduce PrimaryExp->id'
p1118
sg252
S'reduce PrimaryExp->id'
p1119
sg254
S'reduce PrimaryExp->id'
p1120
sa(dp1121
g182
S'reduce PrimaryExp->INT'
p1122
sg187
S'reduce PrimaryExp->INT'
p1123
sg194
S'reduce PrimaryExp->INT'
p1124
sg180
S'reduce PrimaryExp->INT'
p1125
sg138
S'reduce PrimaryExp->INT'
p1126
sg78
S'reduce PrimaryExp->INT'
p1127
sg157
S'reduce PrimaryExp->INT'
p1128
sg178
S'reduce PrimaryExp->INT'
p1129
sg161
S'reduce PrimaryExp->INT'
p1130
sg64
S'reduce PrimaryExp->INT'
p1131
sg191
S'reduce PrimaryExp->INT'
p1132
sg62
S'reduce PrimaryExp->INT'
p1133
sg167
S'reduce PrimaryExp->INT'
p1134
sg169
S'reduce PrimaryExp->INT'
p1135
sg242
S'reduce PrimaryExp->INT'
p1136
sg184
S'reduce PrimaryExp->INT'
p1137
sg76
S'reduce PrimaryExp->INT'
p1138
sg246
S'reduce PrimaryExp->INT'
p1139
sg248
S'reduce PrimaryExp->INT'
p1140
sg250
S'reduce PrimaryExp->INT'
p1141
sg252
S'reduce PrimaryExp->INT'
p1142
sg254
S'reduce PrimaryExp->INT'
p1143
sa(dp1144
g182
S'reduce PrimaryExp->DOUBLE'
p1145
sg187
S'reduce PrimaryExp->DOUBLE'
p1146
sg194
S'reduce PrimaryExp->DOUBLE'
p1147
sg180
S'reduce PrimaryExp->DOUBLE'
p1148
sg138
S'reduce PrimaryExp->DOUBLE'
p1149
sg78
S'reduce PrimaryExp->DOUBLE'
p1150
sg157
S'reduce PrimaryExp->DOUBLE'
p1151
sg178
S'reduce PrimaryExp->DOUBLE'
p1152
sg161
S'reduce PrimaryExp->DOUBLE'
p1153
sg64
S'reduce PrimaryExp->DOUBLE'
p1154
sg191
S'reduce PrimaryExp->DOUBLE'
p1155
sg62
S'reduce PrimaryExp->DOUBLE'
p1156
sg167
S'reduce PrimaryExp->DOUBLE'
p1157
sg169
S'reduce PrimaryExp->DOUBLE'
p1158
sg242
S'reduce PrimaryExp->DOUBLE'
p1159
sg184
S'reduce PrimaryExp->DOUBLE'
p1160
sg76
S'reduce PrimaryExp->DOUBLE'
p1161
sg246
S'reduce PrimaryExp->DOUBLE'
p1162
sg248
S'reduce PrimaryExp->DOUBLE'
p1163
sg250
S'reduce PrimaryExp->DOUBLE'
p1164
sg252
S'reduce PrimaryExp->DOUBLE'
p1165
sg254
S'reduce PrimaryExp->DOUBLE'
p1166
sa(dp1167
g182
S'reduce PrimaryExp->STRING'
p1168
sg187
S'reduce PrimaryExp->STRING'
p1169
sg194
S'reduce PrimaryExp->STRING'
p1170
sg180
S'reduce PrimaryExp->STRING'
p1171
sg138
S'reduce PrimaryExp->STRING'
p1172
sg78
S'reduce PrimaryExp->STRING'
p1173
sg157
S'reduce PrimaryExp->STRING'
p1174
sg178
S'reduce PrimaryExp->STRING'
p1175
sg161
S'reduce PrimaryExp->STRING'
p1176
sg64
S'reduce PrimaryExp->STRING'
p1177
sg191
S'reduce PrimaryExp->STRING'
p1178
sg62
S'reduce PrimaryExp->STRING'
p1179
sg167
S'reduce PrimaryExp->STRING'
p1180
sg169
S'reduce PrimaryExp->STRING'
p1181
sg242
S'reduce PrimaryExp->STRING'
p1182
sg184
S'reduce PrimaryExp->STRING'
p1183
sg76
S'reduce PrimaryExp->STRING'
p1184
sg246
S'reduce PrimaryExp->STRING'
p1185
sg248
S'reduce PrimaryExp->STRING'
p1186
sg250
S'reduce PrimaryExp->STRING'
p1187
sg252
S'reduce PrimaryExp->STRING'
p1188
sg254
S'reduce PrimaryExp->STRING'
p1189
sa(dp1190
g182
S'reduce PrimaryExp->CHAR'
p1191
sg187
S'reduce PrimaryExp->CHAR'
p1192
sg194
S'reduce PrimaryExp->CHAR'
p1193
sg180
S'reduce PrimaryExp->CHAR'
p1194
sg138
S'reduce PrimaryExp->CHAR'
p1195
sg78
S'reduce PrimaryExp->CHAR'
p1196
sg157
S'reduce PrimaryExp->CHAR'
p1197
sg178
S'reduce PrimaryExp->CHAR'
p1198
sg161
S'reduce PrimaryExp->CHAR'
p1199
sg64
S'reduce PrimaryExp->CHAR'
p1200
sg191
S'reduce PrimaryExp->CHAR'
p1201
sg62
S'reduce PrimaryExp->CHAR'
p1202
sg167
S'reduce PrimaryExp->CHAR'
p1203
sg169
S'reduce PrimaryExp->CHAR'
p1204
sg242
S'reduce PrimaryExp->CHAR'
p1205
sg184
S'reduce PrimaryExp->CHAR'
p1206
sg76
S'reduce PrimaryExp->CHAR'
p1207
sg246
S'reduce PrimaryExp->CHAR'
p1208
sg248
S'reduce PrimaryExp->CHAR'
p1209
sg250
S'reduce PrimaryExp->CHAR'
p1210
sg252
S'reduce PrimaryExp->CHAR'
p1211
sg254
S'reduce PrimaryExp->CHAR'
p1212
sa(dp1213
g153
S'shift 84'
p1214
sg155
S'shift 82'
p1215
sg420
S'reduce RalExp->AddExp'
p1216
sg157
S'shift 193'
p1217
sg159
S'shift 81'
p1218
sg161
S'shift 194'
p1219
sg64
S'reduce RalExp->AddExp'
p1220
sg165
S'shift 77'
p1221
sg167
S'shift 80'
p1222
sg169
S'shift 83'
p1223
sa(dp1224
g420
S'reduce Initializer->AssignExp'
p1225
sg64
S'reduce Initializer->AssignExp'
p1226
sa(dp1227
g420
S'reduce InitializerList->Initializer'
p1228
sg64
S'shift 195'
p1229
sa(dp1230
g420
S'shift 196'
p1231
sa(dp1232
g178
S'shift 198'
p1233
sg180
S'shift 197'
p1234
sg182
S'reduce AddExp->MultipExp'
p1235
sg184
S'reduce AddExp->MultipExp'
p1236
sg194
S'reduce AddExp->MultipExp'
p1237
sg157
S'reduce AddExp->MultipExp'
p1238
sg187
S'reduce AddExp->MultipExp'
p1239
sg161
S'reduce AddExp->MultipExp'
p1240
sg64
S'reduce AddExp->MultipExp'
p1241
sg191
S'shift 199'
p1242
sg420
S'reduce AddExp->MultipExp'
p1243
sg167
S'reduce AddExp->MultipExp'
p1244
sg169
S'reduce AddExp->MultipExp'
p1245
sa(dp1246
g182
S'reduce MultipExp->PostfixExp'
p1247
sg187
S'reduce MultipExp->PostfixExp'
p1248
sg194
S'reduce MultipExp->PostfixExp'
p1249
sg180
S'reduce MultipExp->PostfixExp'
p1250
sg78
S'shift 201'
p1251
sg157
S'reduce MultipExp->PostfixExp'
p1252
sg178
S'reduce MultipExp->PostfixExp'
p1253
sg161
S'reduce MultipExp->PostfixExp'
p1254
sg64
S'reduce MultipExp->PostfixExp'
p1255
sg191
S'reduce MultipExp->PostfixExp'
p1256
sg62
S'shift 96'
p1257
sg167
S'reduce MultipExp->PostfixExp'
p1258
sg169
S'reduce MultipExp->PostfixExp'
p1259
sg213
S'shift 90'
p1260
sg184
S'reduce MultipExp->PostfixExp'
p1261
sg76
S'shift 204'
p1262
sg217
S'shift 202'
p1263
sg219
S'shift 203'
p1264
sg221
S'shift 95'
p1265
sg223
S'shift 94'
p1266
sg420
S'reduce MultipExp->PostfixExp'
p1267
sg225
S'shift 92'
p1268
sa(dp1269
g182
S'reduce PostfixExp->PrimaryExp'
p1270
sg187
S'reduce PostfixExp->PrimaryExp'
p1271
sg194
S'reduce PostfixExp->PrimaryExp'
p1272
sg180
S'reduce PostfixExp->PrimaryExp'
p1273
sg78
S'reduce PostfixExp->PrimaryExp'
p1274
sg157
S'reduce PostfixExp->PrimaryExp'
p1275
sg178
S'reduce PostfixExp->PrimaryExp'
p1276
sg161
S'reduce PostfixExp->PrimaryExp'
p1277
sg64
S'reduce PostfixExp->PrimaryExp'
p1278
sg191
S'reduce PostfixExp->PrimaryExp'
p1279
sg62
S'reduce PostfixExp->PrimaryExp'
p1280
sg167
S'reduce PostfixExp->PrimaryExp'
p1281
sg169
S'reduce PostfixExp->PrimaryExp'
p1282
sg242
S'reduce PostfixExp->PrimaryExp'
p1283
sg184
S'reduce PostfixExp->PrimaryExp'
p1284
sg76
S'reduce PostfixExp->PrimaryExp'
p1285
sg246
S'reduce PostfixExp->PrimaryExp'
p1286
sg248
S'reduce PostfixExp->PrimaryExp'
p1287
sg250
S'reduce PostfixExp->PrimaryExp'
p1288
sg252
S'reduce PostfixExp->PrimaryExp'
p1289
sg420
S'reduce PostfixExp->PrimaryExp'
p1290
sg254
S'reduce PostfixExp->PrimaryExp'
p1291
sa(dp1292
g420
S'reduce AssignExp->RalExp'
p1293
sg64
S'reduce AssignExp->RalExp'
p1294
sa(dp1295
g84
S'shift 126'
p1296
sg86
S'shift 121'
p1297
sg88
S'shift 124'
p1298
sg78
S'shift 122'
p1299
sg91
S'shift 127'
p1300
sg93
S'shift 125'
p1301
sg42
S'shift 123'
p1302
sa(dp1303
g84
S'shift 111'
p1304
sg86
S'shift 106'
p1305
sg88
S'shift 109'
p1306
sg78
S'shift 107'
p1307
sg91
S'shift 112'
p1308
sg93
S'shift 110'
p1309
sg42
S'shift 108'
p1310
sa(dp1311
g182
S'reduce PrimaryExp->id'
p1312
sg187
S'reduce PrimaryExp->id'
p1313
sg194
S'reduce PrimaryExp->id'
p1314
sg180
S'reduce PrimaryExp->id'
p1315
sg78
S'reduce PrimaryExp->id'
p1316
sg157
S'reduce PrimaryExp->id'
p1317
sg178
S'reduce PrimaryExp->id'
p1318
sg161
S'reduce PrimaryExp->id'
p1319
sg64
S'reduce PrimaryExp->id'
p1320
sg191
S'reduce PrimaryExp->id'
p1321
sg62
S'reduce PrimaryExp->id'
p1322
sg167
S'reduce PrimaryExp->id'
p1323
sg169
S'reduce PrimaryExp->id'
p1324
sg242
S'reduce PrimaryExp->id'
p1325
sg184
S'reduce PrimaryExp->id'
p1326
sg76
S'reduce PrimaryExp->id'
p1327
sg246
S'reduce PrimaryExp->id'
p1328
sg248
S'reduce PrimaryExp->id'
p1329
sg250
S'reduce PrimaryExp->id'
p1330
sg252
S'reduce PrimaryExp->id'
p1331
sg420
S'reduce PrimaryExp->id'
p1332
sg254
S'reduce PrimaryExp->id'
p1333
sa(dp1334
g182
S'reduce PrimaryExp->INT'
p1335
sg187
S'reduce PrimaryExp->INT'
p1336
sg194
S'reduce PrimaryExp->INT'
p1337
sg180
S'reduce PrimaryExp->INT'
p1338
sg78
S'reduce PrimaryExp->INT'
p1339
sg157
S'reduce PrimaryExp->INT'
p1340
sg178
S'reduce PrimaryExp->INT'
p1341
sg161
S'reduce PrimaryExp->INT'
p1342
sg64
S'reduce PrimaryExp->INT'
p1343
sg191
S'reduce PrimaryExp->INT'
p1344
sg62
S'reduce PrimaryExp->INT'
p1345
sg167
S'reduce PrimaryExp->INT'
p1346
sg169
S'reduce PrimaryExp->INT'
p1347
sg242
S'reduce PrimaryExp->INT'
p1348
sg184
S'reduce PrimaryExp->INT'
p1349
sg76
S'reduce PrimaryExp->INT'
p1350
sg246
S'reduce PrimaryExp->INT'
p1351
sg248
S'reduce PrimaryExp->INT'
p1352
sg250
S'reduce PrimaryExp->INT'
p1353
sg252
S'reduce PrimaryExp->INT'
p1354
sg420
S'reduce PrimaryExp->INT'
p1355
sg254
S'reduce PrimaryExp->INT'
p1356
sa(dp1357
g182
S'reduce PrimaryExp->DOUBLE'
p1358
sg187
S'reduce PrimaryExp->DOUBLE'
p1359
sg194
S'reduce PrimaryExp->DOUBLE'
p1360
sg180
S'reduce PrimaryExp->DOUBLE'
p1361
sg78
S'reduce PrimaryExp->DOUBLE'
p1362
sg157
S'reduce PrimaryExp->DOUBLE'
p1363
sg178
S'reduce PrimaryExp->DOUBLE'
p1364
sg161
S'reduce PrimaryExp->DOUBLE'
p1365
sg64
S'reduce PrimaryExp->DOUBLE'
p1366
sg191
S'reduce PrimaryExp->DOUBLE'
p1367
sg62
S'reduce PrimaryExp->DOUBLE'
p1368
sg167
S'reduce PrimaryExp->DOUBLE'
p1369
sg169
S'reduce PrimaryExp->DOUBLE'
p1370
sg242
S'reduce PrimaryExp->DOUBLE'
p1371
sg184
S'reduce PrimaryExp->DOUBLE'
p1372
sg76
S'reduce PrimaryExp->DOUBLE'
p1373
sg246
S'reduce PrimaryExp->DOUBLE'
p1374
sg248
S'reduce PrimaryExp->DOUBLE'
p1375
sg250
S'reduce PrimaryExp->DOUBLE'
p1376
sg252
S'reduce PrimaryExp->DOUBLE'
p1377
sg420
S'reduce PrimaryExp->DOUBLE'
p1378
sg254
S'reduce PrimaryExp->DOUBLE'
p1379
sa(dp1380
g182
S'reduce PrimaryExp->STRING'
p1381
sg187
S'reduce PrimaryExp->STRING'
p1382
sg194
S'reduce PrimaryExp->STRING'
p1383
sg180
S'reduce PrimaryExp->STRING'
p1384
sg78
S'reduce PrimaryExp->STRING'
p1385
sg157
S'reduce PrimaryExp->STRING'
p1386
sg178
S'reduce PrimaryExp->STRING'
p1387
sg161
S'reduce PrimaryExp->STRING'
p1388
sg64
S'reduce PrimaryExp->STRING'
p1389
sg191
S'reduce PrimaryExp->STRING'
p1390
sg62
S'reduce PrimaryExp->STRING'
p1391
sg167
S'reduce PrimaryExp->STRING'
p1392
sg169
S'reduce PrimaryExp->STRING'
p1393
sg242
S'reduce PrimaryExp->STRING'
p1394
sg184
S'reduce PrimaryExp->STRING'
p1395
sg76
S'reduce PrimaryExp->STRING'
p1396
sg246
S'reduce PrimaryExp->STRING'
p1397
sg248
S'reduce PrimaryExp->STRING'
p1398
sg250
S'reduce PrimaryExp->STRING'
p1399
sg252
S'reduce PrimaryExp->STRING'
p1400
sg420
S'reduce PrimaryExp->STRING'
p1401
sg254
S'reduce PrimaryExp->STRING'
p1402
sa(dp1403
g182
S'reduce PrimaryExp->CHAR'
p1404
sg187
S'reduce PrimaryExp->CHAR'
p1405
sg194
S'reduce PrimaryExp->CHAR'
p1406
sg180
S'reduce PrimaryExp->CHAR'
p1407
sg78
S'reduce PrimaryExp->CHAR'
p1408
sg157
S'reduce PrimaryExp->CHAR'
p1409
sg178
S'reduce PrimaryExp->CHAR'
p1410
sg161
S'reduce PrimaryExp->CHAR'
p1411
sg64
S'reduce PrimaryExp->CHAR'
p1412
sg191
S'reduce PrimaryExp->CHAR'
p1413
sg62
S'reduce PrimaryExp->CHAR'
p1414
sg167
S'reduce PrimaryExp->CHAR'
p1415
sg169
S'reduce PrimaryExp->CHAR'
p1416
sg242
S'reduce PrimaryExp->CHAR'
p1417
sg184
S'reduce PrimaryExp->CHAR'
p1418
sg76
S'reduce PrimaryExp->CHAR'
p1419
sg246
S'reduce PrimaryExp->CHAR'
p1420
sg248
S'reduce PrimaryExp->CHAR'
p1421
sg250
S'reduce PrimaryExp->CHAR'
p1422
sg252
S'reduce PrimaryExp->CHAR'
p1423
sg420
S'reduce PrimaryExp->CHAR'
p1424
sg254
S'reduce PrimaryExp->CHAR'
p1425
sa(dp1426
g84
S'shift 126'
p1427
sg86
S'shift 121'
p1428
sg88
S'shift 124'
p1429
sg78
S'shift 122'
p1430
sg91
S'shift 127'
p1431
sg93
S'shift 125'
p1432
sg67
S'shift 128'
p1433
sg42
S'shift 123'
p1434
sa(dp1435
g420
S'reduce BlockItemList->BlockItem BlockItemList'
p1436
sa(dp1437
g11
S'reduce CompoundStmt->{ BlockItemList }'
p1438
sg13
S'reduce CompoundStmt->{ BlockItemList }'
p1439
sg15
S'reduce CompoundStmt->{ BlockItemList }'
p1440
sg17
S'reduce CompoundStmt->{ BlockItemList }'
p1441
sg19
S'reduce CompoundStmt->{ BlockItemList }'
p1442
sa(dp1443
g84
S'shift 36'
p1444
sg86
S'shift 31'
p1445
sg88
S'shift 34'
p1446
sg78
S'shift 32'
p1447
sg91
S'shift 37'
p1448
sg93
S'shift 35'
p1449
sg42
S'shift 33'
p1450
sa(dp1451
g427
S'reduce ExpStmt->Exp ;'
p1452
sg429
S'reduce ExpStmt->Exp ;'
p1453
sg431
S'reduce ExpStmt->Exp ;'
p1454
sg433
S'reduce ExpStmt->Exp ;'
p1455
sg86
S'reduce ExpStmt->Exp ;'
p1456
sg11
S'reduce ExpStmt->Exp ;'
p1457
sg13
S'reduce ExpStmt->Exp ;'
p1458
sg15
S'reduce ExpStmt->Exp ;'
p1459
sg439
S'reduce ExpStmt->Exp ;'
p1460
sg441
S'reduce ExpStmt->Exp ;'
p1461
sg443
S'reduce ExpStmt->Exp ;'
p1462
sg445
S'reduce ExpStmt->Exp ;'
p1463
sg447
S'reduce ExpStmt->Exp ;'
p1464
sg17
S'reduce ExpStmt->Exp ;'
p1465
sg78
S'reduce ExpStmt->Exp ;'
p1466
sg451
S'reduce ExpStmt->Exp ;'
p1467
sg67
S'reduce ExpStmt->Exp ;'
p1468
sg420
S'reduce ExpStmt->Exp ;'
p1469
sg60
S'reduce ExpStmt->Exp ;'
p1470
sg456
S'reduce ExpStmt->Exp ;'
p1471
sa(dp1472
g60
S'shift 209'
p1473
sg64
S'shift 20'
p1474
sa(dp1475
g427
S'reduce JmpStmt->break ;'
p1476
sg429
S'reduce JmpStmt->break ;'
p1477
sg431
S'reduce JmpStmt->break ;'
p1478
sg433
S'reduce JmpStmt->break ;'
p1479
sg86
S'reduce JmpStmt->break ;'
p1480
sg11
S'reduce JmpStmt->break ;'
p1481
sg13
S'reduce JmpStmt->break ;'
p1482
sg15
S'reduce JmpStmt->break ;'
p1483
sg439
S'reduce JmpStmt->break ;'
p1484
sg441
S'reduce JmpStmt->break ;'
p1485
sg443
S'reduce JmpStmt->break ;'
p1486
sg445
S'reduce JmpStmt->break ;'
p1487
sg447
S'reduce JmpStmt->break ;'
p1488
sg17
S'reduce JmpStmt->break ;'
p1489
sg78
S'reduce JmpStmt->break ;'
p1490
sg451
S'reduce JmpStmt->break ;'
p1491
sg67
S'reduce JmpStmt->break ;'
p1492
sg420
S'reduce JmpStmt->break ;'
p1493
sg60
S'reduce JmpStmt->break ;'
p1494
sg456
S'reduce JmpStmt->break ;'
p1495
sa(dp1496
g427
S'reduce JmpStmt->continue ;'
p1497
sg429
S'reduce JmpStmt->continue ;'
p1498
sg431
S'reduce JmpStmt->continue ;'
p1499
sg433
S'reduce JmpStmt->continue ;'
p1500
sg86
S'reduce JmpStmt->continue ;'
p1501
sg11
S'reduce JmpStmt->continue ;'
p1502
sg13
S'reduce JmpStmt->continue ;'
p1503
sg15
S'reduce JmpStmt->continue ;'
p1504
sg439
S'reduce JmpStmt->continue ;'
p1505
sg441
S'reduce JmpStmt->continue ;'
p1506
sg443
S'reduce JmpStmt->continue ;'
p1507
sg445
S'reduce JmpStmt->continue ;'
p1508
sg447
S'reduce JmpStmt->continue ;'
p1509
sg17
S'reduce JmpStmt->continue ;'
p1510
sg78
S'reduce JmpStmt->continue ;'
p1511
sg451
S'reduce JmpStmt->continue ;'
p1512
sg67
S'reduce JmpStmt->continue ;'
p1513
sg420
S'reduce JmpStmt->continue ;'
p1514
sg60
S'reduce JmpStmt->continue ;'
p1515
sg456
S'reduce JmpStmt->continue ;'
p1516
sa(dp1517
g60
S'shift 210'
p1518
sg64
S'shift 131'
p1519
sa(dp1520
g427
S'reduce JmpStmt->return ;'
p1521
sg429
S'reduce JmpStmt->return ;'
p1522
sg431
S'reduce JmpStmt->return ;'
p1523
sg433
S'reduce JmpStmt->return ;'
p1524
sg86
S'reduce JmpStmt->return ;'
p1525
sg11
S'reduce JmpStmt->return ;'
p1526
sg13
S'reduce JmpStmt->return ;'
p1527
sg15
S'reduce JmpStmt->return ;'
p1528
sg439
S'reduce JmpStmt->return ;'
p1529
sg441
S'reduce JmpStmt->return ;'
p1530
sg443
S'reduce JmpStmt->return ;'
p1531
sg445
S'reduce JmpStmt->return ;'
p1532
sg447
S'reduce JmpStmt->return ;'
p1533
sg17
S'reduce JmpStmt->return ;'
p1534
sg78
S'reduce JmpStmt->return ;'
p1535
sg451
S'reduce JmpStmt->return ;'
p1536
sg67
S'reduce JmpStmt->return ;'
p1537
sg420
S'reduce JmpStmt->return ;'
p1538
sg60
S'reduce JmpStmt->return ;'
p1539
sg456
S'reduce JmpStmt->return ;'
p1540
sa(dp1541
g84
S'shift 111'
p1542
sg86
S'shift 106'
p1543
sg88
S'shift 109'
p1544
sg78
S'shift 107'
p1545
sg91
S'shift 112'
p1546
sg93
S'shift 110'
p1547
sg42
S'shift 108'
p1548
sa(dp1549
g84
S'shift 36'
p1550
sg86
S'shift 31'
p1551
sg88
S'shift 34'
p1552
sg78
S'shift 32'
p1553
sg91
S'shift 37'
p1554
sg93
S'shift 35'
p1555
sg42
S'shift 33'
p1556
sa(dp1557
g84
S'shift 111'
p1558
sg86
S'shift 106'
p1559
sg88
S'shift 109'
p1560
sg78
S'shift 107'
p1561
sg91
S'shift 112'
p1562
sg93
S'shift 110'
p1563
sg42
S'shift 108'
p1564
sa(dp1565
g420
S'shift 214'
p1566
sa(dp1567
g67
S'reduce FunDeclarator->id ( ParamList )'
p1568
sa(dp1569
g2
S'shift 9'
p1570
sg4
S'shift 10'
p1571
sg6
S'shift 8'
p1572
sg8
S'shift 7'
p1573
sa(dp1574
g138
S'reduce ParamDeclaration->TypeSpecifier id'
p1575
sg64
S'reduce ParamDeclaration->TypeSpecifier id'
p1576
sa(dp1577
g84
S'shift 74'
p1578
sg86
S'shift 69'
p1579
sg88
S'shift 72'
p1580
sg78
S'shift 70'
p1581
sg91
S'shift 75'
p1582
sg93
S'shift 73'
p1583
sg42
S'shift 71'
p1584
sa(dp1585
g84
S'shift 74'
p1586
sg86
S'shift 69'
p1587
sg88
S'shift 72'
p1588
sg78
S'shift 70'
p1589
sg91
S'shift 75'
p1590
sg93
S'shift 73'
p1591
sg42
S'shift 71'
p1592
sa(dp1593
g60
S'reduce Declarator->id [ AddExp ]'
p1594
sg62
S'reduce Declarator->id [ AddExp ]'
p1595
sg64
S'reduce Declarator->id [ AddExp ]'
p1596
sa(dp1597
g84
S'shift 74'
p1598
sg86
S'shift 69'
p1599
sg88
S'shift 72'
p1600
sg78
S'shift 70'
p1601
sg91
S'shift 75'
p1602
sg93
S'shift 73'
p1603
sg42
S'shift 71'
p1604
sa(dp1605
g84
S'shift 74'
p1606
sg86
S'shift 69'
p1607
sg88
S'shift 72'
p1608
sg78
S'shift 70'
p1609
sg91
S'shift 75'
p1610
sg93
S'shift 73'
p1611
sg42
S'shift 71'
p1612
sa(dp1613
g84
S'shift 74'
p1614
sg86
S'shift 69'
p1615
sg88
S'shift 72'
p1616
sg78
S'shift 70'
p1617
sg91
S'shift 75'
p1618
sg93
S'shift 73'
p1619
sg42
S'shift 71'
p1620
sa(dp1621
g84
S'shift 111'
p1622
sg86
S'shift 106'
p1623
sg138
S'shift 222'
p1624
sg78
S'shift 107'
p1625
sg91
S'shift 112'
p1626
sg88
S'shift 109'
p1627
sg93
S'shift 110'
p1628
sg42
S'shift 108'
p1629
sa(dp1630
g180
S'reduce PostfixExp->PostfixExp ++'
p1631
sg246
S'reduce PostfixExp->PostfixExp ++'
p1632
sg78
S'reduce PostfixExp->PostfixExp ++'
p1633
sg157
S'reduce PostfixExp->PostfixExp ++'
p1634
sg178
S'reduce PostfixExp->PostfixExp ++'
p1635
sg161
S'reduce PostfixExp->PostfixExp ++'
p1636
sg191
S'reduce PostfixExp->PostfixExp ++'
p1637
sg248
S'reduce PostfixExp->PostfixExp ++'
p1638
sg76
S'reduce PostfixExp->PostfixExp ++'
p1639
sg668
S'reduce PostfixExp->PostfixExp ++'
p1640
sa(dp1641
g180
S'reduce PostfixExp->PostfixExp --'
p1642
sg246
S'reduce PostfixExp->PostfixExp --'
p1643
sg78
S'reduce PostfixExp->PostfixExp --'
p1644
sg157
S'reduce PostfixExp->PostfixExp --'
p1645
sg178
S'reduce PostfixExp->PostfixExp --'
p1646
sg161
S'reduce PostfixExp->PostfixExp --'
p1647
sg191
S'reduce PostfixExp->PostfixExp --'
p1648
sg248
S'reduce PostfixExp->PostfixExp --'
p1649
sg76
S'reduce PostfixExp->PostfixExp --'
p1650
sg668
S'reduce PostfixExp->PostfixExp --'
p1651
sa(dp1652
g84
S'shift 74'
p1653
sg86
S'shift 69'
p1654
sg88
S'shift 72'
p1655
sg78
S'shift 70'
p1656
sg91
S'shift 75'
p1657
sg93
S'shift 73'
p1658
sg42
S'shift 71'
p1659
sa(dp1660
g180
S'reduce PostfixExp->& PostfixExp'
p1661
sg246
S'reduce PostfixExp->& PostfixExp'
p1662
sg78
S'reduce PostfixExp->& PostfixExp'
p1663
sg157
S'reduce PostfixExp->& PostfixExp'
p1664
sg178
S'reduce PostfixExp->& PostfixExp'
p1665
sg161
S'reduce PostfixExp->& PostfixExp'
p1666
sg191
S'reduce PostfixExp->& PostfixExp'
p1667
sg248
S'reduce PostfixExp->& PostfixExp'
p1668
sg76
S'reduce PostfixExp->& PostfixExp'
p1669
sg668
S'reduce PostfixExp->& PostfixExp'
p1670
sa(dp1671
g138
S'shift 224'
p1672
sg64
S'shift 181'
p1673
sa(dp1674
g178
S'reduce MultipExp->PostfixExp'
p1675
sg180
S'reduce MultipExp->PostfixExp'
p1676
sg182
S'reduce MultipExp->PostfixExp'
p1677
sg184
S'reduce MultipExp->PostfixExp'
p1678
sg78
S'shift 225'
p1679
sg157
S'reduce MultipExp->PostfixExp'
p1680
sg187
S'reduce MultipExp->PostfixExp'
p1681
sg161
S'reduce MultipExp->PostfixExp'
p1682
sg64
S'reduce MultipExp->PostfixExp'
p1683
sg191
S'reduce MultipExp->PostfixExp'
p1684
sg217
S'shift 226'
p1685
sg76
S'shift 228'
p1686
sg219
S'shift 227'
p1687
sg60
S'reduce MultipExp->PostfixExp'
p1688
sg194
S'reduce MultipExp->PostfixExp'
p1689
sg167
S'reduce MultipExp->PostfixExp'
p1690
sg169
S'reduce MultipExp->PostfixExp'
p1691
sa(dp1692
g178
S'reduce PostfixExp->PrimaryExp'
p1693
sg180
S'reduce PostfixExp->PrimaryExp'
p1694
sg182
S'reduce PostfixExp->PrimaryExp'
p1695
sg184
S'reduce PostfixExp->PrimaryExp'
p1696
sg78
S'reduce PostfixExp->PrimaryExp'
p1697
sg157
S'reduce PostfixExp->PrimaryExp'
p1698
sg187
S'reduce PostfixExp->PrimaryExp'
p1699
sg161
S'reduce PostfixExp->PrimaryExp'
p1700
sg64
S'reduce PostfixExp->PrimaryExp'
p1701
sg191
S'reduce PostfixExp->PrimaryExp'
p1702
sg246
S'reduce PostfixExp->PrimaryExp'
p1703
sg76
S'reduce PostfixExp->PrimaryExp'
p1704
sg248
S'reduce PostfixExp->PrimaryExp'
p1705
sg60
S'reduce PostfixExp->PrimaryExp'
p1706
sg194
S'reduce PostfixExp->PrimaryExp'
p1707
sg167
S'reduce PostfixExp->PrimaryExp'
p1708
sg169
S'reduce PostfixExp->PrimaryExp'
p1709
sa(dp1710
g60
S'reduce RalExp->AddExp RalOp RalExp'
p1711
sg64
S'reduce RalExp->AddExp RalOp RalExp'
p1712
sa(dp1713
g84
S'shift 165'
p1714
sg86
S'shift 160'
p1715
sg88
S'shift 163'
p1716
sg78
S'shift 161'
p1717
sg91
S'shift 166'
p1718
sg93
S'shift 164'
p1719
sg42
S'shift 162'
p1720
sa(dp1721
g84
S'shift 111'
p1722
sg86
S'shift 106'
p1723
sg88
S'shift 109'
p1724
sg78
S'shift 107'
p1725
sg91
S'shift 112'
p1726
sg93
S'shift 110'
p1727
sg42
S'shift 108'
p1728
sa(dp1729
g178
S'reduce PrimaryExp->id'
p1730
sg180
S'reduce PrimaryExp->id'
p1731
sg182
S'reduce PrimaryExp->id'
p1732
sg184
S'reduce PrimaryExp->id'
p1733
sg78
S'reduce PrimaryExp->id'
p1734
sg157
S'reduce PrimaryExp->id'
p1735
sg187
S'reduce PrimaryExp->id'
p1736
sg161
S'reduce PrimaryExp->id'
p1737
sg64
S'reduce PrimaryExp->id'
p1738
sg191
S'reduce PrimaryExp->id'
p1739
sg246
S'reduce PrimaryExp->id'
p1740
sg76
S'reduce PrimaryExp->id'
p1741
sg248
S'reduce PrimaryExp->id'
p1742
sg60
S'reduce PrimaryExp->id'
p1743
sg194
S'reduce PrimaryExp->id'
p1744
sg167
S'reduce PrimaryExp->id'
p1745
sg169
S'reduce PrimaryExp->id'
p1746
sa(dp1747
g178
S'reduce PrimaryExp->INT'
p1748
sg180
S'reduce PrimaryExp->INT'
p1749
sg182
S'reduce PrimaryExp->INT'
p1750
sg184
S'reduce PrimaryExp->INT'
p1751
sg78
S'reduce PrimaryExp->INT'
p1752
sg157
S'reduce PrimaryExp->INT'
p1753
sg187
S'reduce PrimaryExp->INT'
p1754
sg161
S'reduce PrimaryExp->INT'
p1755
sg64
S'reduce PrimaryExp->INT'
p1756
sg191
S'reduce PrimaryExp->INT'
p1757
sg246
S'reduce PrimaryExp->INT'
p1758
sg76
S'reduce PrimaryExp->INT'
p1759
sg248
S'reduce PrimaryExp->INT'
p1760
sg60
S'reduce PrimaryExp->INT'
p1761
sg194
S'reduce PrimaryExp->INT'
p1762
sg167
S'reduce PrimaryExp->INT'
p1763
sg169
S'reduce PrimaryExp->INT'
p1764
sa(dp1765
g178
S'reduce PrimaryExp->DOUBLE'
p1766
sg180
S'reduce PrimaryExp->DOUBLE'
p1767
sg182
S'reduce PrimaryExp->DOUBLE'
p1768
sg184
S'reduce PrimaryExp->DOUBLE'
p1769
sg78
S'reduce PrimaryExp->DOUBLE'
p1770
sg157
S'reduce PrimaryExp->DOUBLE'
p1771
sg187
S'reduce PrimaryExp->DOUBLE'
p1772
sg161
S'reduce PrimaryExp->DOUBLE'
p1773
sg64
S'reduce PrimaryExp->DOUBLE'
p1774
sg191
S'reduce PrimaryExp->DOUBLE'
p1775
sg246
S'reduce PrimaryExp->DOUBLE'
p1776
sg76
S'reduce PrimaryExp->DOUBLE'
p1777
sg248
S'reduce PrimaryExp->DOUBLE'
p1778
sg60
S'reduce PrimaryExp->DOUBLE'
p1779
sg194
S'reduce PrimaryExp->DOUBLE'
p1780
sg167
S'reduce PrimaryExp->DOUBLE'
p1781
sg169
S'reduce PrimaryExp->DOUBLE'
p1782
sa(dp1783
g178
S'reduce PrimaryExp->STRING'
p1784
sg180
S'reduce PrimaryExp->STRING'
p1785
sg182
S'reduce PrimaryExp->STRING'
p1786
sg184
S'reduce PrimaryExp->STRING'
p1787
sg78
S'reduce PrimaryExp->STRING'
p1788
sg157
S'reduce PrimaryExp->STRING'
p1789
sg187
S'reduce PrimaryExp->STRING'
p1790
sg161
S'reduce PrimaryExp->STRING'
p1791
sg64
S'reduce PrimaryExp->STRING'
p1792
sg191
S'reduce PrimaryExp->STRING'
p1793
sg246
S'reduce PrimaryExp->STRING'
p1794
sg76
S'reduce PrimaryExp->STRING'
p1795
sg248
S'reduce PrimaryExp->STRING'
p1796
sg60
S'reduce PrimaryExp->STRING'
p1797
sg194
S'reduce PrimaryExp->STRING'
p1798
sg167
S'reduce PrimaryExp->STRING'
p1799
sg169
S'reduce PrimaryExp->STRING'
p1800
sa(dp1801
g178
S'reduce PrimaryExp->CHAR'
p1802
sg180
S'reduce PrimaryExp->CHAR'
p1803
sg182
S'reduce PrimaryExp->CHAR'
p1804
sg184
S'reduce PrimaryExp->CHAR'
p1805
sg78
S'reduce PrimaryExp->CHAR'
p1806
sg157
S'reduce PrimaryExp->CHAR'
p1807
sg187
S'reduce PrimaryExp->CHAR'
p1808
sg161
S'reduce PrimaryExp->CHAR'
p1809
sg64
S'reduce PrimaryExp->CHAR'
p1810
sg191
S'reduce PrimaryExp->CHAR'
p1811
sg246
S'reduce PrimaryExp->CHAR'
p1812
sg76
S'reduce PrimaryExp->CHAR'
p1813
sg248
S'reduce PrimaryExp->CHAR'
p1814
sg60
S'reduce PrimaryExp->CHAR'
p1815
sg194
S'reduce PrimaryExp->CHAR'
p1816
sg167
S'reduce PrimaryExp->CHAR'
p1817
sg169
S'reduce PrimaryExp->CHAR'
p1818
sa(dp1819
g178
S'shift 86'
p1820
sg180
S'shift 85'
p1821
sg182
S'reduce AddExp->AddExp + MultipExp'
p1822
sg184
S'reduce AddExp->AddExp + MultipExp'
p1823
sg157
S'reduce AddExp->AddExp + MultipExp'
p1824
sg187
S'reduce AddExp->AddExp + MultipExp'
p1825
sg161
S'reduce AddExp->AddExp + MultipExp'
p1826
sg64
S'reduce AddExp->AddExp + MultipExp'
p1827
sg191
S'shift 87'
p1828
sg60
S'reduce AddExp->AddExp + MultipExp'
p1829
sg194
S'reduce AddExp->AddExp + MultipExp'
p1830
sg167
S'reduce AddExp->AddExp + MultipExp'
p1831
sg169
S'reduce AddExp->AddExp + MultipExp'
p1832
sa(dp1833
g178
S'shift 86'
p1834
sg180
S'shift 85'
p1835
sg182
S'reduce AddExp->AddExp - MultipExp'
p1836
sg184
S'reduce AddExp->AddExp - MultipExp'
p1837
sg157
S'reduce AddExp->AddExp - MultipExp'
p1838
sg187
S'reduce AddExp->AddExp - MultipExp'
p1839
sg161
S'reduce AddExp->AddExp - MultipExp'
p1840
sg64
S'reduce AddExp->AddExp - MultipExp'
p1841
sg191
S'shift 87'
p1842
sg60
S'reduce AddExp->AddExp - MultipExp'
p1843
sg194
S'reduce AddExp->AddExp - MultipExp'
p1844
sg167
S'reduce AddExp->AddExp - MultipExp'
p1845
sg169
S'reduce AddExp->AddExp - MultipExp'
p1846
sa(dp1847
g178
S'reduce MultipExp->MultipExp % PostfixExp'
p1848
sg180
S'reduce MultipExp->MultipExp % PostfixExp'
p1849
sg182
S'reduce MultipExp->MultipExp % PostfixExp'
p1850
sg184
S'reduce MultipExp->MultipExp % PostfixExp'
p1851
sg78
S'shift 225'
p1852
sg157
S'reduce MultipExp->MultipExp % PostfixExp'
p1853
sg187
S'reduce MultipExp->MultipExp % PostfixExp'
p1854
sg161
S'reduce MultipExp->MultipExp % PostfixExp'
p1855
sg64
S'reduce MultipExp->MultipExp % PostfixExp'
p1856
sg191
S'reduce MultipExp->MultipExp % PostfixExp'
p1857
sg217
S'shift 226'
p1858
sg76
S'shift 228'
p1859
sg219
S'shift 227'
p1860
sg60
S'reduce MultipExp->MultipExp % PostfixExp'
p1861
sg194
S'reduce MultipExp->MultipExp % PostfixExp'
p1862
sg167
S'reduce MultipExp->MultipExp % PostfixExp'
p1863
sg169
S'reduce MultipExp->MultipExp % PostfixExp'
p1864
sa(dp1865
g178
S'reduce MultipExp->MultipExp * PostfixExp'
p1866
sg180
S'reduce MultipExp->MultipExp * PostfixExp'
p1867
sg182
S'reduce MultipExp->MultipExp * PostfixExp'
p1868
sg184
S'reduce MultipExp->MultipExp * PostfixExp'
p1869
sg78
S'shift 225'
p1870
sg157
S'reduce MultipExp->MultipExp * PostfixExp'
p1871
sg187
S'reduce MultipExp->MultipExp * PostfixExp'
p1872
sg161
S'reduce MultipExp->MultipExp * PostfixExp'
p1873
sg64
S'reduce MultipExp->MultipExp * PostfixExp'
p1874
sg191
S'reduce MultipExp->MultipExp * PostfixExp'
p1875
sg217
S'shift 226'
p1876
sg76
S'shift 228'
p1877
sg219
S'shift 227'
p1878
sg60
S'reduce MultipExp->MultipExp * PostfixExp'
p1879
sg194
S'reduce MultipExp->MultipExp * PostfixExp'
p1880
sg167
S'reduce MultipExp->MultipExp * PostfixExp'
p1881
sg169
S'reduce MultipExp->MultipExp * PostfixExp'
p1882
sa(dp1883
g178
S'reduce MultipExp->MultipExp / PostfixExp'
p1884
sg180
S'reduce MultipExp->MultipExp / PostfixExp'
p1885
sg182
S'reduce MultipExp->MultipExp / PostfixExp'
p1886
sg184
S'reduce MultipExp->MultipExp / PostfixExp'
p1887
sg78
S'shift 225'
p1888
sg157
S'reduce MultipExp->MultipExp / PostfixExp'
p1889
sg187
S'reduce MultipExp->MultipExp / PostfixExp'
p1890
sg161
S'reduce MultipExp->MultipExp / PostfixExp'
p1891
sg64
S'reduce MultipExp->MultipExp / PostfixExp'
p1892
sg191
S'reduce MultipExp->MultipExp / PostfixExp'
p1893
sg217
S'shift 226'
p1894
sg76
S'shift 228'
p1895
sg219
S'shift 227'
p1896
sg60
S'reduce MultipExp->MultipExp / PostfixExp'
p1897
sg194
S'reduce MultipExp->MultipExp / PostfixExp'
p1898
sg167
S'reduce MultipExp->MultipExp / PostfixExp'
p1899
sg169
S'reduce MultipExp->MultipExp / PostfixExp'
p1900
sa(dp1901
g60
S'reduce AssignExp->PostfixExp AssignOp AssignExp'
p1902
sg64
S'reduce AssignExp->PostfixExp AssignOp AssignExp'
p1903
sa(dp1904
g138
S'shift 231'
p1905
sg64
S'shift 232'
p1906
sa(dp1907
g138
S'reduce ArgExpList->AssignExp'
p1908
sg64
S'reduce ArgExpList->AssignExp'
p1909
sa(dp1910
g182
S'reduce PostfixExp->PostfixExp ( )'
p1911
sg187
S'reduce PostfixExp->PostfixExp ( )'
p1912
sg194
S'reduce PostfixExp->PostfixExp ( )'
p1913
sg180
S'reduce PostfixExp->PostfixExp ( )'
p1914
sg78
S'reduce PostfixExp->PostfixExp ( )'
p1915
sg157
S'reduce PostfixExp->PostfixExp ( )'
p1916
sg178
S'reduce PostfixExp->PostfixExp ( )'
p1917
sg161
S'reduce PostfixExp->PostfixExp ( )'
p1918
sg64
S'reduce PostfixExp->PostfixExp ( )'
p1919
sg191
S'reduce PostfixExp->PostfixExp ( )'
p1920
sg60
S'reduce PostfixExp->PostfixExp ( )'
p1921
sg62
S'reduce PostfixExp->PostfixExp ( )'
p1922
sg167
S'reduce PostfixExp->PostfixExp ( )'
p1923
sg169
S'reduce PostfixExp->PostfixExp ( )'
p1924
sg242
S'reduce PostfixExp->PostfixExp ( )'
p1925
sg184
S'reduce PostfixExp->PostfixExp ( )'
p1926
sg76
S'reduce PostfixExp->PostfixExp ( )'
p1927
sg246
S'reduce PostfixExp->PostfixExp ( )'
p1928
sg248
S'reduce PostfixExp->PostfixExp ( )'
p1929
sg250
S'reduce PostfixExp->PostfixExp ( )'
p1930
sg252
S'reduce PostfixExp->PostfixExp ( )'
p1931
sg254
S'reduce PostfixExp->PostfixExp ( )'
p1932
sa(dp1933
g668
S'shift 233'
p1934
sg157
S'shift 145'
p1935
sg161
S'shift 146'
p1936
sa(dp1937
g84
S'shift 242'
p1938
sg86
S'shift 237'
p1939
sg88
S'shift 240'
p1940
sg78
S'shift 238'
p1941
sg91
S'shift 243'
p1942
sg93
S'shift 241'
p1943
sg42
S'shift 239'
p1944
sa(dp1945
g84
S'shift 242'
p1946
sg86
S'shift 237'
p1947
sg88
S'shift 240'
p1948
sg78
S'shift 238'
p1949
sg91
S'shift 243'
p1950
sg93
S'shift 241'
p1951
sg42
S'shift 239'
p1952
sa(dp1953
g84
S'shift 242'
p1954
sg86
S'shift 237'
p1955
sg88
S'shift 240'
p1956
sg78
S'shift 238'
p1957
sg91
S'shift 243'
p1958
sg93
S'shift 241'
p1959
sg42
S'shift 239'
p1960
sa(dp1961
g182
S'reduce PrimaryExp->( Exp )'
p1962
sg187
S'reduce PrimaryExp->( Exp )'
p1963
sg194
S'reduce PrimaryExp->( Exp )'
p1964
sg180
S'reduce PrimaryExp->( Exp )'
p1965
sg78
S'reduce PrimaryExp->( Exp )'
p1966
sg157
S'reduce PrimaryExp->( Exp )'
p1967
sg178
S'reduce PrimaryExp->( Exp )'
p1968
sg161
S'reduce PrimaryExp->( Exp )'
p1969
sg64
S'reduce PrimaryExp->( Exp )'
p1970
sg191
S'reduce PrimaryExp->( Exp )'
p1971
sg60
S'reduce PrimaryExp->( Exp )'
p1972
sg62
S'reduce PrimaryExp->( Exp )'
p1973
sg167
S'reduce PrimaryExp->( Exp )'
p1974
sg169
S'reduce PrimaryExp->( Exp )'
p1975
sg242
S'reduce PrimaryExp->( Exp )'
p1976
sg184
S'reduce PrimaryExp->( Exp )'
p1977
sg76
S'reduce PrimaryExp->( Exp )'
p1978
sg246
S'reduce PrimaryExp->( Exp )'
p1979
sg248
S'reduce PrimaryExp->( Exp )'
p1980
sg250
S'reduce PrimaryExp->( Exp )'
p1981
sg252
S'reduce PrimaryExp->( Exp )'
p1982
sg254
S'reduce PrimaryExp->( Exp )'
p1983
sa(dp1984
g84
S'shift 111'
p1985
sg86
S'shift 106'
p1986
sg88
S'shift 109'
p1987
sg78
S'shift 107'
p1988
sg91
S'shift 112'
p1989
sg93
S'shift 110'
p1990
sg42
S'shift 108'
p1991
sa(dp1992
g84
S'shift 242'
p1993
sg86
S'shift 237'
p1994
sg88
S'shift 240'
p1995
sg78
S'shift 238'
p1996
sg91
S'shift 243'
p1997
sg93
S'shift 241'
p1998
sg42
S'shift 239'
p1999
sa(dp2000
g84
S'shift 242'
p2001
sg86
S'shift 237'
p2002
sg88
S'shift 240'
p2003
sg78
S'shift 238'
p2004
sg91
S'shift 243'
p2005
sg93
S'shift 241'
p2006
sg42
S'shift 239'
p2007
sa(dp2008
g84
S'shift 242'
p2009
sg86
S'shift 237'
p2010
sg88
S'shift 240'
p2011
sg78
S'shift 238'
p2012
sg91
S'shift 243'
p2013
sg93
S'shift 241'
p2014
sg42
S'shift 239'
p2015
sa(dp2016
g84
S'shift 111'
p2017
sg86
S'shift 106'
p2018
sg88
S'shift 109'
p2019
sg78
S'shift 107'
p2020
sg91
S'shift 112'
p2021
sg93
S'shift 110'
p2022
sg42
S'shift 108'
p2023
sa(dp2024
g84
S'shift 111'
p2025
sg86
S'shift 106'
p2026
sg138
S'shift 252'
p2027
sg78
S'shift 107'
p2028
sg91
S'shift 112'
p2029
sg88
S'shift 109'
p2030
sg93
S'shift 110'
p2031
sg42
S'shift 108'
p2032
sa(dp2033
g182
S'reduce PostfixExp->PostfixExp ++'
p2034
sg187
S'reduce PostfixExp->PostfixExp ++'
p2035
sg194
S'reduce PostfixExp->PostfixExp ++'
p2036
sg180
S'reduce PostfixExp->PostfixExp ++'
p2037
sg138
S'reduce PostfixExp->PostfixExp ++'
p2038
sg78
S'reduce PostfixExp->PostfixExp ++'
p2039
sg157
S'reduce PostfixExp->PostfixExp ++'
p2040
sg178
S'reduce PostfixExp->PostfixExp ++'
p2041
sg161
S'reduce PostfixExp->PostfixExp ++'
p2042
sg64
S'reduce PostfixExp->PostfixExp ++'
p2043
sg191
S'reduce PostfixExp->PostfixExp ++'
p2044
sg62
S'reduce PostfixExp->PostfixExp ++'
p2045
sg167
S'reduce PostfixExp->PostfixExp ++'
p2046
sg169
S'reduce PostfixExp->PostfixExp ++'
p2047
sg242
S'reduce PostfixExp->PostfixExp ++'
p2048
sg184
S'reduce PostfixExp->PostfixExp ++'
p2049
sg76
S'reduce PostfixExp->PostfixExp ++'
p2050
sg246
S'reduce PostfixExp->PostfixExp ++'
p2051
sg248
S'reduce PostfixExp->PostfixExp ++'
p2052
sg250
S'reduce PostfixExp->PostfixExp ++'
p2053
sg252
S'reduce PostfixExp->PostfixExp ++'
p2054
sg254
S'reduce PostfixExp->PostfixExp ++'
p2055
sa(dp2056
g182
S'reduce PostfixExp->PostfixExp --'
p2057
sg187
S'reduce PostfixExp->PostfixExp --'
p2058
sg194
S'reduce PostfixExp->PostfixExp --'
p2059
sg180
S'reduce PostfixExp->PostfixExp --'
p2060
sg138
S'reduce PostfixExp->PostfixExp --'
p2061
sg78
S'reduce PostfixExp->PostfixExp --'
p2062
sg157
S'reduce PostfixExp->PostfixExp --'
p2063
sg178
S'reduce PostfixExp->PostfixExp --'
p2064
sg161
S'reduce PostfixExp->PostfixExp --'
p2065
sg64
S'reduce PostfixExp->PostfixExp --'
p2066
sg191
S'reduce PostfixExp->PostfixExp --'
p2067
sg62
S'reduce PostfixExp->PostfixExp --'
p2068
sg167
S'reduce PostfixExp->PostfixExp --'
p2069
sg169
S'reduce PostfixExp->PostfixExp --'
p2070
sg242
S'reduce PostfixExp->PostfixExp --'
p2071
sg184
S'reduce PostfixExp->PostfixExp --'
p2072
sg76
S'reduce PostfixExp->PostfixExp --'
p2073
sg246
S'reduce PostfixExp->PostfixExp --'
p2074
sg248
S'reduce PostfixExp->PostfixExp --'
p2075
sg250
S'reduce PostfixExp->PostfixExp --'
p2076
sg252
S'reduce PostfixExp->PostfixExp --'
p2077
sg254
S'reduce PostfixExp->PostfixExp --'
p2078
sa(dp2079
g84
S'shift 74'
p2080
sg86
S'shift 69'
p2081
sg88
S'shift 72'
p2082
sg78
S'shift 70'
p2083
sg91
S'shift 75'
p2084
sg93
S'shift 73'
p2085
sg42
S'shift 71'
p2086
sa(dp2087
g182
S'reduce PostfixExp->& PostfixExp'
p2088
sg187
S'reduce PostfixExp->& PostfixExp'
p2089
sg194
S'reduce PostfixExp->& PostfixExp'
p2090
sg180
S'reduce PostfixExp->& PostfixExp'
p2091
sg138
S'reduce PostfixExp->& PostfixExp'
p2092
sg78
S'reduce PostfixExp->& PostfixExp'
p2093
sg157
S'reduce PostfixExp->& PostfixExp'
p2094
sg178
S'reduce PostfixExp->& PostfixExp'
p2095
sg161
S'reduce PostfixExp->& PostfixExp'
p2096
sg64
S'reduce PostfixExp->& PostfixExp'
p2097
sg191
S'reduce PostfixExp->& PostfixExp'
p2098
sg62
S'reduce PostfixExp->& PostfixExp'
p2099
sg167
S'reduce PostfixExp->& PostfixExp'
p2100
sg169
S'reduce PostfixExp->& PostfixExp'
p2101
sg242
S'reduce PostfixExp->& PostfixExp'
p2102
sg184
S'reduce PostfixExp->& PostfixExp'
p2103
sg76
S'reduce PostfixExp->& PostfixExp'
p2104
sg246
S'reduce PostfixExp->& PostfixExp'
p2105
sg248
S'reduce PostfixExp->& PostfixExp'
p2106
sg250
S'reduce PostfixExp->& PostfixExp'
p2107
sg252
S'reduce PostfixExp->& PostfixExp'
p2108
sg254
S'reduce PostfixExp->& PostfixExp'
p2109
sa(dp2110
g138
S'shift 254'
p2111
sg64
S'shift 181'
p2112
sa(dp2113
g84
S'shift 263'
p2114
sg86
S'shift 258'
p2115
sg88
S'shift 261'
p2116
sg78
S'shift 259'
p2117
sg91
S'shift 264'
p2118
sg93
S'shift 262'
p2119
sg42
S'shift 260'
p2120
sa(dp2121
g84
S'shift 263'
p2122
sg86
S'shift 258'
p2123
sg88
S'shift 261'
p2124
sg78
S'shift 259'
p2125
sg91
S'shift 264'
p2126
sg93
S'shift 262'
p2127
sg42
S'shift 260'
p2128
sa(dp2129
g84
S'shift 263'
p2130
sg86
S'shift 258'
p2131
sg88
S'shift 261'
p2132
sg78
S'shift 259'
p2133
sg91
S'shift 264'
p2134
sg93
S'shift 262'
p2135
sg42
S'shift 260'
p2136
sa(dp2137
g84
S'shift 126'
p2138
sg86
S'shift 121'
p2139
sg88
S'shift 124'
p2140
sg78
S'shift 122'
p2141
sg91
S'shift 127'
p2142
sg93
S'shift 125'
p2143
sg67
S'shift 128'
p2144
sg42
S'shift 123'
p2145
sa(dp2146
g60
S'reduce Initializer->{ InitializerList }'
p2147
sg64
S'reduce Initializer->{ InitializerList }'
p2148
sa(dp2149
g84
S'shift 263'
p2150
sg86
S'shift 258'
p2151
sg88
S'shift 261'
p2152
sg78
S'shift 259'
p2153
sg91
S'shift 264'
p2154
sg93
S'shift 262'
p2155
sg42
S'shift 260'
p2156
sa(dp2157
g84
S'shift 263'
p2158
sg86
S'shift 258'
p2159
sg88
S'shift 261'
p2160
sg78
S'shift 259'
p2161
sg91
S'shift 264'
p2162
sg93
S'shift 262'
p2163
sg42
S'shift 260'
p2164
sa(dp2165
g84
S'shift 263'
p2166
sg86
S'shift 258'
p2167
sg88
S'shift 261'
p2168
sg78
S'shift 259'
p2169
sg91
S'shift 264'
p2170
sg93
S'shift 262'
p2171
sg42
S'shift 260'
p2172
sa(dp2173
g84
S'shift 126'
p2174
sg86
S'shift 121'
p2175
sg88
S'shift 124'
p2176
sg78
S'shift 122'
p2177
sg91
S'shift 127'
p2178
sg93
S'shift 125'
p2179
sg42
S'shift 123'
p2180
sa(dp2181
g84
S'shift 111'
p2182
sg86
S'shift 106'
p2183
sg138
S'shift 273'
p2184
sg78
S'shift 107'
p2185
sg91
S'shift 112'
p2186
sg88
S'shift 109'
p2187
sg93
S'shift 110'
p2188
sg42
S'shift 108'
p2189
sa(dp2190
g182
S'reduce PostfixExp->PostfixExp ++'
p2191
sg187
S'reduce PostfixExp->PostfixExp ++'
p2192
sg194
S'reduce PostfixExp->PostfixExp ++'
p2193
sg180
S'reduce PostfixExp->PostfixExp ++'
p2194
sg78
S'reduce PostfixExp->PostfixExp ++'
p2195
sg157
S'reduce PostfixExp->PostfixExp ++'
p2196
sg178
S'reduce PostfixExp->PostfixExp ++'
p2197
sg161
S'reduce PostfixExp->PostfixExp ++'
p2198
sg64
S'reduce PostfixExp->PostfixExp ++'
p2199
sg191
S'reduce PostfixExp->PostfixExp ++'
p2200
sg62
S'reduce PostfixExp->PostfixExp ++'
p2201
sg167
S'reduce PostfixExp->PostfixExp ++'
p2202
sg169
S'reduce PostfixExp->PostfixExp ++'
p2203
sg242
S'reduce PostfixExp->PostfixExp ++'
p2204
sg184
S'reduce PostfixExp->PostfixExp ++'
p2205
sg76
S'reduce PostfixExp->PostfixExp ++'
p2206
sg246
S'reduce PostfixExp->PostfixExp ++'
p2207
sg248
S'reduce PostfixExp->PostfixExp ++'
p2208
sg250
S'reduce PostfixExp->PostfixExp ++'
p2209
sg252
S'reduce PostfixExp->PostfixExp ++'
p2210
sg420
S'reduce PostfixExp->PostfixExp ++'
p2211
sg254
S'reduce PostfixExp->PostfixExp ++'
p2212
sa(dp2213
g182
S'reduce PostfixExp->PostfixExp --'
p2214
sg187
S'reduce PostfixExp->PostfixExp --'
p2215
sg194
S'reduce PostfixExp->PostfixExp --'
p2216
sg180
S'reduce PostfixExp->PostfixExp --'
p2217
sg78
S'reduce PostfixExp->PostfixExp --'
p2218
sg157
S'reduce PostfixExp->PostfixExp --'
p2219
sg178
S'reduce PostfixExp->PostfixExp --'
p2220
sg161
S'reduce PostfixExp->PostfixExp --'
p2221
sg64
S'reduce PostfixExp->PostfixExp --'
p2222
sg191
S'reduce PostfixExp->PostfixExp --'
p2223
sg62
S'reduce PostfixExp->PostfixExp --'
p2224
sg167
S'reduce PostfixExp->PostfixExp --'
p2225
sg169
S'reduce PostfixExp->PostfixExp --'
p2226
sg242
S'reduce PostfixExp->PostfixExp --'
p2227
sg184
S'reduce PostfixExp->PostfixExp --'
p2228
sg76
S'reduce PostfixExp->PostfixExp --'
p2229
sg246
S'reduce PostfixExp->PostfixExp --'
p2230
sg248
S'reduce PostfixExp->PostfixExp --'
p2231
sg250
S'reduce PostfixExp->PostfixExp --'
p2232
sg252
S'reduce PostfixExp->PostfixExp --'
p2233
sg420
S'reduce PostfixExp->PostfixExp --'
p2234
sg254
S'reduce PostfixExp->PostfixExp --'
p2235
sa(dp2236
g84
S'shift 74'
p2237
sg86
S'shift 69'
p2238
sg88
S'shift 72'
p2239
sg78
S'shift 70'
p2240
sg91
S'shift 75'
p2241
sg93
S'shift 73'
p2242
sg42
S'shift 71'
p2243
sa(dp2244
g182
S'reduce PostfixExp->& PostfixExp'
p2245
sg187
S'reduce PostfixExp->& PostfixExp'
p2246
sg194
S'reduce PostfixExp->& PostfixExp'
p2247
sg180
S'reduce PostfixExp->& PostfixExp'
p2248
sg78
S'reduce PostfixExp->& PostfixExp'
p2249
sg157
S'reduce PostfixExp->& PostfixExp'
p2250
sg178
S'reduce PostfixExp->& PostfixExp'
p2251
sg161
S'reduce PostfixExp->& PostfixExp'
p2252
sg64
S'reduce PostfixExp->& PostfixExp'
p2253
sg191
S'reduce PostfixExp->& PostfixExp'
p2254
sg62
S'reduce PostfixExp->& PostfixExp'
p2255
sg167
S'reduce PostfixExp->& PostfixExp'
p2256
sg169
S'reduce PostfixExp->& PostfixExp'
p2257
sg242
S'reduce PostfixExp->& PostfixExp'
p2258
sg184
S'reduce PostfixExp->& PostfixExp'
p2259
sg76
S'reduce PostfixExp->& PostfixExp'
p2260
sg246
S'reduce PostfixExp->& PostfixExp'
p2261
sg248
S'reduce PostfixExp->& PostfixExp'
p2262
sg250
S'reduce PostfixExp->& PostfixExp'
p2263
sg252
S'reduce PostfixExp->& PostfixExp'
p2264
sg420
S'reduce PostfixExp->& PostfixExp'
p2265
sg254
S'reduce PostfixExp->& PostfixExp'
p2266
sa(dp2267
g138
S'shift 275'
p2268
sg64
S'shift 181'
p2269
sa(dp2270
g420
S'shift 276'
p2271
sa(dp2272
g60
S'reduce Exp->Exp , AssignExp'
p2273
sg64
S'reduce Exp->Exp , AssignExp'
p2274
sa(dp2275
g427
S'reduce Declaration->TypeSpecifier InitDeclarationList ;'
p2276
sg429
S'reduce Declaration->TypeSpecifier InitDeclarationList ;'
p2277
sg431
S'reduce Declaration->TypeSpecifier InitDeclarationList ;'
p2278
sg433
S'reduce Declaration->TypeSpecifier InitDeclarationList ;'
p2279
sg86
S'reduce Declaration->TypeSpecifier InitDeclarationList ;'
p2280
sg11
S'reduce Declaration->TypeSpecifier InitDeclarationList ;'
p2281
sg13
S'reduce Declaration->TypeSpecifier InitDeclarationList ;'
p2282
sg15
S'reduce Declaration->TypeSpecifier InitDeclarationList ;'
p2283
sg439
S'reduce Declaration->TypeSpecifier InitDeclarationList ;'
p2284
sg441
S'reduce Declaration->TypeSpecifier InitDeclarationList ;'
p2285
sg443
S'reduce Declaration->TypeSpecifier InitDeclarationList ;'
p2286
sg445
S'reduce Declaration->TypeSpecifier InitDeclarationList ;'
p2287
sg447
S'reduce Declaration->TypeSpecifier InitDeclarationList ;'
p2288
sg17
S'reduce Declaration->TypeSpecifier InitDeclarationList ;'
p2289
sg78
S'reduce Declaration->TypeSpecifier InitDeclarationList ;'
p2290
sg451
S'reduce Declaration->TypeSpecifier InitDeclarationList ;'
p2291
sg67
S'reduce Declaration->TypeSpecifier InitDeclarationList ;'
p2292
sg420
S'reduce Declaration->TypeSpecifier InitDeclarationList ;'
p2293
sg60
S'reduce Declaration->TypeSpecifier InitDeclarationList ;'
p2294
sg456
S'reduce Declaration->TypeSpecifier InitDeclarationList ;'
p2295
sa(dp2296
g427
S'reduce JmpStmt->return Exp ;'
p2297
sg429
S'reduce JmpStmt->return Exp ;'
p2298
sg431
S'reduce JmpStmt->return Exp ;'
p2299
sg433
S'reduce JmpStmt->return Exp ;'
p2300
sg86
S'reduce JmpStmt->return Exp ;'
p2301
sg11
S'reduce JmpStmt->return Exp ;'
p2302
sg13
S'reduce JmpStmt->return Exp ;'
p2303
sg15
S'reduce JmpStmt->return Exp ;'
p2304
sg439
S'reduce JmpStmt->return Exp ;'
p2305
sg441
S'reduce JmpStmt->return Exp ;'
p2306
sg443
S'reduce JmpStmt->return Exp ;'
p2307
sg445
S'reduce JmpStmt->return Exp ;'
p2308
sg447
S'reduce JmpStmt->return Exp ;'
p2309
sg17
S'reduce JmpStmt->return Exp ;'
p2310
sg78
S'reduce JmpStmt->return Exp ;'
p2311
sg451
S'reduce JmpStmt->return Exp ;'
p2312
sg67
S'reduce JmpStmt->return Exp ;'
p2313
sg420
S'reduce JmpStmt->return Exp ;'
p2314
sg60
S'reduce JmpStmt->return Exp ;'
p2315
sg456
S'reduce JmpStmt->return Exp ;'
p2316
sa(dp2317
g138
S'shift 277'
p2318
sg64
S'shift 181'
p2319
sa(dp2320
g60
S'shift 278'
p2321
sg64
S'shift 131'
p2322
sa(dp2323
g138
S'shift 279'
p2324
sg64
S'shift 181'
p2325
sa(dp2326
g427
S'reduce CompoundStmt->{ BlockItemList }'
p2327
sg429
S'reduce CompoundStmt->{ BlockItemList }'
p2328
sg431
S'reduce CompoundStmt->{ BlockItemList }'
p2329
sg433
S'reduce CompoundStmt->{ BlockItemList }'
p2330
sg86
S'reduce CompoundStmt->{ BlockItemList }'
p2331
sg11
S'reduce CompoundStmt->{ BlockItemList }'
p2332
sg13
S'reduce CompoundStmt->{ BlockItemList }'
p2333
sg15
S'reduce CompoundStmt->{ BlockItemList }'
p2334
sg439
S'reduce CompoundStmt->{ BlockItemList }'
p2335
sg441
S'reduce CompoundStmt->{ BlockItemList }'
p2336
sg443
S'reduce CompoundStmt->{ BlockItemList }'
p2337
sg445
S'reduce CompoundStmt->{ BlockItemList }'
p2338
sg447
S'reduce CompoundStmt->{ BlockItemList }'
p2339
sg17
S'reduce CompoundStmt->{ BlockItemList }'
p2340
sg78
S'reduce CompoundStmt->{ BlockItemList }'
p2341
sg451
S'reduce CompoundStmt->{ BlockItemList }'
p2342
sg67
S'reduce CompoundStmt->{ BlockItemList }'
p2343
sg420
S'reduce CompoundStmt->{ BlockItemList }'
p2344
sg60
S'reduce CompoundStmt->{ BlockItemList }'
p2345
sg456
S'reduce CompoundStmt->{ BlockItemList }'
p2346
sa(dp2347
g138
S'reduce ParamList->ParamList , ParamDeclaration'
p2348
sg64
S'reduce ParamList->ParamList , ParamDeclaration'
p2349
sa(dp2350
g180
S'shift 148'
p2351
sg157
S'reduce AddExp->AddExp + MultipExp'
p2352
sg178
S'shift 149'
p2353
sg161
S'reduce AddExp->AddExp + MultipExp'
p2354
sg191
S'shift 150'
p2355
sg668
S'reduce AddExp->AddExp + MultipExp'
p2356
sa(dp2357
g180
S'shift 148'
p2358
sg157
S'reduce AddExp->AddExp - MultipExp'
p2359
sg178
S'shift 149'
p2360
sg161
S'reduce AddExp->AddExp - MultipExp'
p2361
sg191
S'shift 150'
p2362
sg668
S'reduce AddExp->AddExp - MultipExp'
p2363
sa(dp2364
g180
S'reduce MultipExp->MultipExp % PostfixExp'
p2365
sg217
S'shift 152'
p2366
sg78
S'shift 151'
p2367
sg157
S'reduce MultipExp->MultipExp % PostfixExp'
p2368
sg178
S'reduce MultipExp->MultipExp % PostfixExp'
p2369
sg161
S'reduce MultipExp->MultipExp % PostfixExp'
p2370
sg191
S'reduce MultipExp->MultipExp % PostfixExp'
p2371
sg219
S'shift 153'
p2372
sg76
S'shift 154'
p2373
sg668
S'reduce MultipExp->MultipExp % PostfixExp'
p2374
sa(dp2375
g180
S'reduce MultipExp->MultipExp * PostfixExp'
p2376
sg217
S'shift 152'
p2377
sg78
S'shift 151'
p2378
sg157
S'reduce MultipExp->MultipExp * PostfixExp'
p2379
sg178
S'reduce MultipExp->MultipExp * PostfixExp'
p2380
sg161
S'reduce MultipExp->MultipExp * PostfixExp'
p2381
sg191
S'reduce MultipExp->MultipExp * PostfixExp'
p2382
sg219
S'shift 153'
p2383
sg76
S'shift 154'
p2384
sg668
S'reduce MultipExp->MultipExp * PostfixExp'
p2385
sa(dp2386
g180
S'reduce MultipExp->MultipExp / PostfixExp'
p2387
sg217
S'shift 152'
p2388
sg78
S'shift 151'
p2389
sg157
S'reduce MultipExp->MultipExp / PostfixExp'
p2390
sg178
S'reduce MultipExp->MultipExp / PostfixExp'
p2391
sg161
S'reduce MultipExp->MultipExp / PostfixExp'
p2392
sg191
S'reduce MultipExp->MultipExp / PostfixExp'
p2393
sg219
S'shift 153'
p2394
sg76
S'shift 154'
p2395
sg668
S'reduce MultipExp->MultipExp / PostfixExp'
p2396
sa(dp2397
g138
S'shift 280'
p2398
sg64
S'shift 232'
p2399
sa(dp2400
g180
S'reduce PostfixExp->PostfixExp ( )'
p2401
sg246
S'reduce PostfixExp->PostfixExp ( )'
p2402
sg78
S'reduce PostfixExp->PostfixExp ( )'
p2403
sg157
S'reduce PostfixExp->PostfixExp ( )'
p2404
sg178
S'reduce PostfixExp->PostfixExp ( )'
p2405
sg161
S'reduce PostfixExp->PostfixExp ( )'
p2406
sg191
S'reduce PostfixExp->PostfixExp ( )'
p2407
sg248
S'reduce PostfixExp->PostfixExp ( )'
p2408
sg76
S'reduce PostfixExp->PostfixExp ( )'
p2409
sg668
S'reduce PostfixExp->PostfixExp ( )'
p2410
sa(dp2411
g668
S'shift 281'
p2412
sg157
S'shift 145'
p2413
sg161
S'shift 146'
p2414
sa(dp2415
g180
S'reduce PrimaryExp->( Exp )'
p2416
sg246
S'reduce PrimaryExp->( Exp )'
p2417
sg78
S'reduce PrimaryExp->( Exp )'
p2418
sg157
S'reduce PrimaryExp->( Exp )'
p2419
sg178
S'reduce PrimaryExp->( Exp )'
p2420
sg161
S'reduce PrimaryExp->( Exp )'
p2421
sg191
S'reduce PrimaryExp->( Exp )'
p2422
sg248
S'reduce PrimaryExp->( Exp )'
p2423
sg76
S'reduce PrimaryExp->( Exp )'
p2424
sg668
S'reduce PrimaryExp->( Exp )'
p2425
sa(dp2426
g84
S'shift 111'
p2427
sg86
S'shift 106'
p2428
sg138
S'shift 283'
p2429
sg78
S'shift 107'
p2430
sg91
S'shift 112'
p2431
sg88
S'shift 109'
p2432
sg93
S'shift 110'
p2433
sg42
S'shift 108'
p2434
sa(dp2435
g178
S'reduce PostfixExp->PostfixExp ++'
p2436
sg180
S'reduce PostfixExp->PostfixExp ++'
p2437
sg182
S'reduce PostfixExp->PostfixExp ++'
p2438
sg184
S'reduce PostfixExp->PostfixExp ++'
p2439
sg78
S'reduce PostfixExp->PostfixExp ++'
p2440
sg157
S'reduce PostfixExp->PostfixExp ++'
p2441
sg187
S'reduce PostfixExp->PostfixExp ++'
p2442
sg161
S'reduce PostfixExp->PostfixExp ++'
p2443
sg64
S'reduce PostfixExp->PostfixExp ++'
p2444
sg191
S'reduce PostfixExp->PostfixExp ++'
p2445
sg246
S'reduce PostfixExp->PostfixExp ++'
p2446
sg76
S'reduce PostfixExp->PostfixExp ++'
p2447
sg248
S'reduce PostfixExp->PostfixExp ++'
p2448
sg60
S'reduce PostfixExp->PostfixExp ++'
p2449
sg194
S'reduce PostfixExp->PostfixExp ++'
p2450
sg167
S'reduce PostfixExp->PostfixExp ++'
p2451
sg169
S'reduce PostfixExp->PostfixExp ++'
p2452
sa(dp2453
g178
S'reduce PostfixExp->PostfixExp --'
p2454
sg180
S'reduce PostfixExp->PostfixExp --'
p2455
sg182
S'reduce PostfixExp->PostfixExp --'
p2456
sg184
S'reduce PostfixExp->PostfixExp --'
p2457
sg78
S'reduce PostfixExp->PostfixExp --'
p2458
sg157
S'reduce PostfixExp->PostfixExp --'
p2459
sg187
S'reduce PostfixExp->PostfixExp --'
p2460
sg161
S'reduce PostfixExp->PostfixExp --'
p2461
sg64
S'reduce PostfixExp->PostfixExp --'
p2462
sg191
S'reduce PostfixExp->PostfixExp --'
p2463
sg246
S'reduce PostfixExp->PostfixExp --'
p2464
sg76
S'reduce PostfixExp->PostfixExp --'
p2465
sg248
S'reduce PostfixExp->PostfixExp --'
p2466
sg60
S'reduce PostfixExp->PostfixExp --'
p2467
sg194
S'reduce PostfixExp->PostfixExp --'
p2468
sg167
S'reduce PostfixExp->PostfixExp --'
p2469
sg169
S'reduce PostfixExp->PostfixExp --'
p2470
sa(dp2471
g84
S'shift 74'
p2472
sg86
S'shift 69'
p2473
sg88
S'shift 72'
p2474
sg78
S'shift 70'
p2475
sg91
S'shift 75'
p2476
sg93
S'shift 73'
p2477
sg42
S'shift 71'
p2478
sa(dp2479
g178
S'reduce PostfixExp->& PostfixExp'
p2480
sg180
S'reduce PostfixExp->& PostfixExp'
p2481
sg182
S'reduce PostfixExp->& PostfixExp'
p2482
sg184
S'reduce PostfixExp->& PostfixExp'
p2483
sg78
S'reduce PostfixExp->& PostfixExp'
p2484
sg157
S'reduce PostfixExp->& PostfixExp'
p2485
sg187
S'reduce PostfixExp->& PostfixExp'
p2486
sg161
S'reduce PostfixExp->& PostfixExp'
p2487
sg64
S'reduce PostfixExp->& PostfixExp'
p2488
sg191
S'reduce PostfixExp->& PostfixExp'
p2489
sg246
S'reduce PostfixExp->& PostfixExp'
p2490
sg76
S'reduce PostfixExp->& PostfixExp'
p2491
sg248
S'reduce PostfixExp->& PostfixExp'
p2492
sg60
S'reduce PostfixExp->& PostfixExp'
p2493
sg194
S'reduce PostfixExp->& PostfixExp'
p2494
sg167
S'reduce PostfixExp->& PostfixExp'
p2495
sg169
S'reduce PostfixExp->& PostfixExp'
p2496
sa(dp2497
g138
S'shift 285'
p2498
sg64
S'shift 181'
p2499
sa(dp2500
g182
S'reduce PostfixExp->PostfixExp ( ArgExpList )'
p2501
sg187
S'reduce PostfixExp->PostfixExp ( ArgExpList )'
p2502
sg194
S'reduce PostfixExp->PostfixExp ( ArgExpList )'
p2503
sg180
S'reduce PostfixExp->PostfixExp ( ArgExpList )'
p2504
sg78
S'reduce PostfixExp->PostfixExp ( ArgExpList )'
p2505
sg157
S'reduce PostfixExp->PostfixExp ( ArgExpList )'
p2506
sg178
S'reduce PostfixExp->PostfixExp ( ArgExpList )'
p2507
sg161
S'reduce PostfixExp->PostfixExp ( ArgExpList )'
p2508
sg64
S'reduce PostfixExp->PostfixExp ( ArgExpList )'
p2509
sg191
S'reduce PostfixExp->PostfixExp ( ArgExpList )'
p2510
sg60
S'reduce PostfixExp->PostfixExp ( ArgExpList )'
p2511
sg62
S'reduce PostfixExp->PostfixExp ( ArgExpList )'
p2512
sg167
S'reduce PostfixExp->PostfixExp ( ArgExpList )'
p2513
sg169
S'reduce PostfixExp->PostfixExp ( ArgExpList )'
p2514
sg242
S'reduce PostfixExp->PostfixExp ( ArgExpList )'
p2515
sg184
S'reduce PostfixExp->PostfixExp ( ArgExpList )'
p2516
sg76
S'reduce PostfixExp->PostfixExp ( ArgExpList )'
p2517
sg246
S'reduce PostfixExp->PostfixExp ( ArgExpList )'
p2518
sg248
S'reduce PostfixExp->PostfixExp ( ArgExpList )'
p2519
sg250
S'reduce PostfixExp->PostfixExp ( ArgExpList )'
p2520
sg252
S'reduce PostfixExp->PostfixExp ( ArgExpList )'
p2521
sg254
S'reduce PostfixExp->PostfixExp ( ArgExpList )'
p2522
sa(dp2523
g84
S'shift 111'
p2524
sg86
S'shift 106'
p2525
sg88
S'shift 109'
p2526
sg78
S'shift 107'
p2527
sg91
S'shift 112'
p2528
sg93
S'shift 110'
p2529
sg42
S'shift 108'
p2530
sa(dp2531
g182
S'reduce PostfixExp->PostfixExp [ AddExp ]'
p2532
sg187
S'reduce PostfixExp->PostfixExp [ AddExp ]'
p2533
sg194
S'reduce PostfixExp->PostfixExp [ AddExp ]'
p2534
sg180
S'reduce PostfixExp->PostfixExp [ AddExp ]'
p2535
sg78
S'reduce PostfixExp->PostfixExp [ AddExp ]'
p2536
sg157
S'reduce PostfixExp->PostfixExp [ AddExp ]'
p2537
sg178
S'reduce PostfixExp->PostfixExp [ AddExp ]'
p2538
sg161
S'reduce PostfixExp->PostfixExp [ AddExp ]'
p2539
sg64
S'reduce PostfixExp->PostfixExp [ AddExp ]'
p2540
sg191
S'reduce PostfixExp->PostfixExp [ AddExp ]'
p2541
sg60
S'reduce PostfixExp->PostfixExp [ AddExp ]'
p2542
sg62
S'reduce PostfixExp->PostfixExp [ AddExp ]'
p2543
sg167
S'reduce PostfixExp->PostfixExp [ AddExp ]'
p2544
sg169
S'reduce PostfixExp->PostfixExp [ AddExp ]'
p2545
sg242
S'reduce PostfixExp->PostfixExp [ AddExp ]'
p2546
sg184
S'reduce PostfixExp->PostfixExp [ AddExp ]'
p2547
sg76
S'reduce PostfixExp->PostfixExp [ AddExp ]'
p2548
sg246
S'reduce PostfixExp->PostfixExp [ AddExp ]'
p2549
sg248
S'reduce PostfixExp->PostfixExp [ AddExp ]'
p2550
sg250
S'reduce PostfixExp->PostfixExp [ AddExp ]'
p2551
sg252
S'reduce PostfixExp->PostfixExp [ AddExp ]'
p2552
sg254
S'reduce PostfixExp->PostfixExp [ AddExp ]'
p2553
sa(dp2554
g178
S'reduce MultipExp->PostfixExp'
p2555
sg180
S'reduce MultipExp->PostfixExp'
p2556
sg182
S'reduce MultipExp->PostfixExp'
p2557
sg138
S'reduce MultipExp->PostfixExp'
p2558
sg78
S'shift 287'
p2559
sg157
S'reduce MultipExp->PostfixExp'
p2560
sg187
S'reduce MultipExp->PostfixExp'
p2561
sg161
S'reduce MultipExp->PostfixExp'
p2562
sg64
S'reduce MultipExp->PostfixExp'
p2563
sg191
S'reduce MultipExp->PostfixExp'
p2564
sg184
S'reduce MultipExp->PostfixExp'
p2565
sg76
S'shift 290'
p2566
sg219
S'shift 289'
p2567
sg217
S'shift 288'
p2568
sg194
S'reduce MultipExp->PostfixExp'
p2569
sg167
S'reduce MultipExp->PostfixExp'
p2570
sg169
S'reduce MultipExp->PostfixExp'
p2571
sa(dp2572
g178
S'reduce PostfixExp->PrimaryExp'
p2573
sg180
S'reduce PostfixExp->PrimaryExp'
p2574
sg182
S'reduce PostfixExp->PrimaryExp'
p2575
sg138
S'reduce PostfixExp->PrimaryExp'
p2576
sg78
S'reduce PostfixExp->PrimaryExp'
p2577
sg246
S'reduce PostfixExp->PrimaryExp'
p2578
sg187
S'reduce PostfixExp->PrimaryExp'
p2579
sg161
S'reduce PostfixExp->PrimaryExp'
p2580
sg64
S'reduce PostfixExp->PrimaryExp'
p2581
sg191
S'reduce PostfixExp->PrimaryExp'
p2582
sg184
S'reduce PostfixExp->PrimaryExp'
p2583
sg157
S'reduce PostfixExp->PrimaryExp'
p2584
sg248
S'reduce PostfixExp->PrimaryExp'
p2585
sg76
S'reduce PostfixExp->PrimaryExp'
p2586
sg194
S'reduce PostfixExp->PrimaryExp'
p2587
sg167
S'reduce PostfixExp->PrimaryExp'
p2588
sg169
S'reduce PostfixExp->PrimaryExp'
p2589
sa(dp2590
g138
S'reduce RalExp->AddExp RalOp RalExp'
p2591
sg64
S'reduce RalExp->AddExp RalOp RalExp'
p2592
sa(dp2593
g84
S'shift 242'
p2594
sg86
S'shift 237'
p2595
sg88
S'shift 240'
p2596
sg78
S'shift 238'
p2597
sg91
S'shift 243'
p2598
sg93
S'shift 241'
p2599
sg42
S'shift 239'
p2600
sa(dp2601
g84
S'shift 111'
p2602
sg86
S'shift 106'
p2603
sg88
S'shift 109'
p2604
sg78
S'shift 107'
p2605
sg91
S'shift 112'
p2606
sg93
S'shift 110'
p2607
sg42
S'shift 108'
p2608
sa(dp2609
g178
S'reduce PrimaryExp->id'
p2610
sg180
S'reduce PrimaryExp->id'
p2611
sg182
S'reduce PrimaryExp->id'
p2612
sg138
S'reduce PrimaryExp->id'
p2613
sg78
S'reduce PrimaryExp->id'
p2614
sg246
S'reduce PrimaryExp->id'
p2615
sg187
S'reduce PrimaryExp->id'
p2616
sg161
S'reduce PrimaryExp->id'
p2617
sg64
S'reduce PrimaryExp->id'
p2618
sg191
S'reduce PrimaryExp->id'
p2619
sg184
S'reduce PrimaryExp->id'
p2620
sg157
S'reduce PrimaryExp->id'
p2621
sg248
S'reduce PrimaryExp->id'
p2622
sg76
S'reduce PrimaryExp->id'
p2623
sg194
S'reduce PrimaryExp->id'
p2624
sg167
S'reduce PrimaryExp->id'
p2625
sg169
S'reduce PrimaryExp->id'
p2626
sa(dp2627
g178
S'reduce PrimaryExp->INT'
p2628
sg180
S'reduce PrimaryExp->INT'
p2629
sg182
S'reduce PrimaryExp->INT'
p2630
sg138
S'reduce PrimaryExp->INT'
p2631
sg78
S'reduce PrimaryExp->INT'
p2632
sg246
S'reduce PrimaryExp->INT'
p2633
sg187
S'reduce PrimaryExp->INT'
p2634
sg161
S'reduce PrimaryExp->INT'
p2635
sg64
S'reduce PrimaryExp->INT'
p2636
sg191
S'reduce PrimaryExp->INT'
p2637
sg184
S'reduce PrimaryExp->INT'
p2638
sg157
S'reduce PrimaryExp->INT'
p2639
sg248
S'reduce PrimaryExp->INT'
p2640
sg76
S'reduce PrimaryExp->INT'
p2641
sg194
S'reduce PrimaryExp->INT'
p2642
sg167
S'reduce PrimaryExp->INT'
p2643
sg169
S'reduce PrimaryExp->INT'
p2644
sa(dp2645
g178
S'reduce PrimaryExp->DOUBLE'
p2646
sg180
S'reduce PrimaryExp->DOUBLE'
p2647
sg182
S'reduce PrimaryExp->DOUBLE'
p2648
sg138
S'reduce PrimaryExp->DOUBLE'
p2649
sg78
S'reduce PrimaryExp->DOUBLE'
p2650
sg246
S'reduce PrimaryExp->DOUBLE'
p2651
sg187
S'reduce PrimaryExp->DOUBLE'
p2652
sg161
S'reduce PrimaryExp->DOUBLE'
p2653
sg64
S'reduce PrimaryExp->DOUBLE'
p2654
sg191
S'reduce PrimaryExp->DOUBLE'
p2655
sg184
S'reduce PrimaryExp->DOUBLE'
p2656
sg157
S'reduce PrimaryExp->DOUBLE'
p2657
sg248
S'reduce PrimaryExp->DOUBLE'
p2658
sg76
S'reduce PrimaryExp->DOUBLE'
p2659
sg194
S'reduce PrimaryExp->DOUBLE'
p2660
sg167
S'reduce PrimaryExp->DOUBLE'
p2661
sg169
S'reduce PrimaryExp->DOUBLE'
p2662
sa(dp2663
g178
S'reduce PrimaryExp->STRING'
p2664
sg180
S'reduce PrimaryExp->STRING'
p2665
sg182
S'reduce PrimaryExp->STRING'
p2666
sg138
S'reduce PrimaryExp->STRING'
p2667
sg78
S'reduce PrimaryExp->STRING'
p2668
sg246
S'reduce PrimaryExp->STRING'
p2669
sg187
S'reduce PrimaryExp->STRING'
p2670
sg161
S'reduce PrimaryExp->STRING'
p2671
sg64
S'reduce PrimaryExp->STRING'
p2672
sg191
S'reduce PrimaryExp->STRING'
p2673
sg184
S'reduce PrimaryExp->STRING'
p2674
sg157
S'reduce PrimaryExp->STRING'
p2675
sg248
S'reduce PrimaryExp->STRING'
p2676
sg76
S'reduce PrimaryExp->STRING'
p2677
sg194
S'reduce PrimaryExp->STRING'
p2678
sg167
S'reduce PrimaryExp->STRING'
p2679
sg169
S'reduce PrimaryExp->STRING'
p2680
sa(dp2681
g178
S'reduce PrimaryExp->CHAR'
p2682
sg180
S'reduce PrimaryExp->CHAR'
p2683
sg182
S'reduce PrimaryExp->CHAR'
p2684
sg138
S'reduce PrimaryExp->CHAR'
p2685
sg78
S'reduce PrimaryExp->CHAR'
p2686
sg246
S'reduce PrimaryExp->CHAR'
p2687
sg187
S'reduce PrimaryExp->CHAR'
p2688
sg161
S'reduce PrimaryExp->CHAR'
p2689
sg64
S'reduce PrimaryExp->CHAR'
p2690
sg191
S'reduce PrimaryExp->CHAR'
p2691
sg184
S'reduce PrimaryExp->CHAR'
p2692
sg157
S'reduce PrimaryExp->CHAR'
p2693
sg248
S'reduce PrimaryExp->CHAR'
p2694
sg76
S'reduce PrimaryExp->CHAR'
p2695
sg194
S'reduce PrimaryExp->CHAR'
p2696
sg167
S'reduce PrimaryExp->CHAR'
p2697
sg169
S'reduce PrimaryExp->CHAR'
p2698
sa(dp2699
g178
S'shift 183'
p2700
sg180
S'shift 182'
p2701
sg182
S'reduce AddExp->AddExp + MultipExp'
p2702
sg138
S'reduce AddExp->AddExp + MultipExp'
p2703
sg157
S'reduce AddExp->AddExp + MultipExp'
p2704
sg187
S'reduce AddExp->AddExp + MultipExp'
p2705
sg161
S'reduce AddExp->AddExp + MultipExp'
p2706
sg64
S'reduce AddExp->AddExp + MultipExp'
p2707
sg191
S'shift 184'
p2708
sg184
S'reduce AddExp->AddExp + MultipExp'
p2709
sg194
S'reduce AddExp->AddExp + MultipExp'
p2710
sg167
S'reduce AddExp->AddExp + MultipExp'
p2711
sg169
S'reduce AddExp->AddExp + MultipExp'
p2712
sa(dp2713
g178
S'shift 183'
p2714
sg180
S'shift 182'
p2715
sg182
S'reduce AddExp->AddExp - MultipExp'
p2716
sg138
S'reduce AddExp->AddExp - MultipExp'
p2717
sg157
S'reduce AddExp->AddExp - MultipExp'
p2718
sg187
S'reduce AddExp->AddExp - MultipExp'
p2719
sg161
S'reduce AddExp->AddExp - MultipExp'
p2720
sg64
S'reduce AddExp->AddExp - MultipExp'
p2721
sg191
S'shift 184'
p2722
sg184
S'reduce AddExp->AddExp - MultipExp'
p2723
sg194
S'reduce AddExp->AddExp - MultipExp'
p2724
sg167
S'reduce AddExp->AddExp - MultipExp'
p2725
sg169
S'reduce AddExp->AddExp - MultipExp'
p2726
sa(dp2727
g138
S'reduce Exp->Exp , AssignExp'
p2728
sg64
S'reduce Exp->Exp , AssignExp'
p2729
sa(dp2730
g178
S'reduce MultipExp->MultipExp % PostfixExp'
p2731
sg180
S'reduce MultipExp->MultipExp % PostfixExp'
p2732
sg182
S'reduce MultipExp->MultipExp % PostfixExp'
p2733
sg138
S'reduce MultipExp->MultipExp % PostfixExp'
p2734
sg78
S'shift 287'
p2735
sg157
S'reduce MultipExp->MultipExp % PostfixExp'
p2736
sg187
S'reduce MultipExp->MultipExp % PostfixExp'
p2737
sg161
S'reduce MultipExp->MultipExp % PostfixExp'
p2738
sg64
S'reduce MultipExp->MultipExp % PostfixExp'
p2739
sg191
S'reduce MultipExp->MultipExp % PostfixExp'
p2740
sg184
S'reduce MultipExp->MultipExp % PostfixExp'
p2741
sg76
S'shift 290'
p2742
sg219
S'shift 289'
p2743
sg217
S'shift 288'
p2744
sg194
S'reduce MultipExp->MultipExp % PostfixExp'
p2745
sg167
S'reduce MultipExp->MultipExp % PostfixExp'
p2746
sg169
S'reduce MultipExp->MultipExp % PostfixExp'
p2747
sa(dp2748
g178
S'reduce MultipExp->MultipExp * PostfixExp'
p2749
sg180
S'reduce MultipExp->MultipExp * PostfixExp'
p2750
sg182
S'reduce MultipExp->MultipExp * PostfixExp'
p2751
sg138
S'reduce MultipExp->MultipExp * PostfixExp'
p2752
sg78
S'shift 287'
p2753
sg157
S'reduce MultipExp->MultipExp * PostfixExp'
p2754
sg187
S'reduce MultipExp->MultipExp * PostfixExp'
p2755
sg161
S'reduce MultipExp->MultipExp * PostfixExp'
p2756
sg64
S'reduce MultipExp->MultipExp * PostfixExp'
p2757
sg191
S'reduce MultipExp->MultipExp * PostfixExp'
p2758
sg184
S'reduce MultipExp->MultipExp * PostfixExp'
p2759
sg76
S'shift 290'
p2760
sg219
S'shift 289'
p2761
sg217
S'shift 288'
p2762
sg194
S'reduce MultipExp->MultipExp * PostfixExp'
p2763
sg167
S'reduce MultipExp->MultipExp * PostfixExp'
p2764
sg169
S'reduce MultipExp->MultipExp * PostfixExp'
p2765
sa(dp2766
g178
S'reduce MultipExp->MultipExp / PostfixExp'
p2767
sg180
S'reduce MultipExp->MultipExp / PostfixExp'
p2768
sg182
S'reduce MultipExp->MultipExp / PostfixExp'
p2769
sg138
S'reduce MultipExp->MultipExp / PostfixExp'
p2770
sg78
S'shift 287'
p2771
sg157
S'reduce MultipExp->MultipExp / PostfixExp'
p2772
sg187
S'reduce MultipExp->MultipExp / PostfixExp'
p2773
sg161
S'reduce MultipExp->MultipExp / PostfixExp'
p2774
sg64
S'reduce MultipExp->MultipExp / PostfixExp'
p2775
sg191
S'reduce MultipExp->MultipExp / PostfixExp'
p2776
sg184
S'reduce MultipExp->MultipExp / PostfixExp'
p2777
sg76
S'shift 290'
p2778
sg219
S'shift 289'
p2779
sg217
S'shift 288'
p2780
sg194
S'reduce MultipExp->MultipExp / PostfixExp'
p2781
sg167
S'reduce MultipExp->MultipExp / PostfixExp'
p2782
sg169
S'reduce MultipExp->MultipExp / PostfixExp'
p2783
sa(dp2784
g138
S'reduce AssignExp->PostfixExp AssignOp AssignExp'
p2785
sg64
S'reduce AssignExp->PostfixExp AssignOp AssignExp'
p2786
sa(dp2787
g138
S'shift 293'
p2788
sg64
S'shift 232'
p2789
sa(dp2790
g182
S'reduce PostfixExp->PostfixExp ( )'
p2791
sg187
S'reduce PostfixExp->PostfixExp ( )'
p2792
sg194
S'reduce PostfixExp->PostfixExp ( )'
p2793
sg180
S'reduce PostfixExp->PostfixExp ( )'
p2794
sg138
S'reduce PostfixExp->PostfixExp ( )'
p2795
sg78
S'reduce PostfixExp->PostfixExp ( )'
p2796
sg157
S'reduce PostfixExp->PostfixExp ( )'
p2797
sg178
S'reduce PostfixExp->PostfixExp ( )'
p2798
sg161
S'reduce PostfixExp->PostfixExp ( )'
p2799
sg64
S'reduce PostfixExp->PostfixExp ( )'
p2800
sg191
S'reduce PostfixExp->PostfixExp ( )'
p2801
sg62
S'reduce PostfixExp->PostfixExp ( )'
p2802
sg167
S'reduce PostfixExp->PostfixExp ( )'
p2803
sg169
S'reduce PostfixExp->PostfixExp ( )'
p2804
sg242
S'reduce PostfixExp->PostfixExp ( )'
p2805
sg184
S'reduce PostfixExp->PostfixExp ( )'
p2806
sg76
S'reduce PostfixExp->PostfixExp ( )'
p2807
sg246
S'reduce PostfixExp->PostfixExp ( )'
p2808
sg248
S'reduce PostfixExp->PostfixExp ( )'
p2809
sg250
S'reduce PostfixExp->PostfixExp ( )'
p2810
sg252
S'reduce PostfixExp->PostfixExp ( )'
p2811
sg254
S'reduce PostfixExp->PostfixExp ( )'
p2812
sa(dp2813
g668
S'shift 294'
p2814
sg157
S'shift 145'
p2815
sg161
S'shift 146'
p2816
sa(dp2817
g182
S'reduce PrimaryExp->( Exp )'
p2818
sg187
S'reduce PrimaryExp->( Exp )'
p2819
sg194
S'reduce PrimaryExp->( Exp )'
p2820
sg180
S'reduce PrimaryExp->( Exp )'
p2821
sg138
S'reduce PrimaryExp->( Exp )'
p2822
sg78
S'reduce PrimaryExp->( Exp )'
p2823
sg157
S'reduce PrimaryExp->( Exp )'
p2824
sg178
S'reduce PrimaryExp->( Exp )'
p2825
sg161
S'reduce PrimaryExp->( Exp )'
p2826
sg64
S'reduce PrimaryExp->( Exp )'
p2827
sg191
S'reduce PrimaryExp->( Exp )'
p2828
sg62
S'reduce PrimaryExp->( Exp )'
p2829
sg167
S'reduce PrimaryExp->( Exp )'
p2830
sg169
S'reduce PrimaryExp->( Exp )'
p2831
sg242
S'reduce PrimaryExp->( Exp )'
p2832
sg184
S'reduce PrimaryExp->( Exp )'
p2833
sg76
S'reduce PrimaryExp->( Exp )'
p2834
sg246
S'reduce PrimaryExp->( Exp )'
p2835
sg248
S'reduce PrimaryExp->( Exp )'
p2836
sg250
S'reduce PrimaryExp->( Exp )'
p2837
sg252
S'reduce PrimaryExp->( Exp )'
p2838
sg254
S'reduce PrimaryExp->( Exp )'
p2839
sa(dp2840
g178
S'reduce MultipExp->PostfixExp'
p2841
sg180
S'reduce MultipExp->PostfixExp'
p2842
sg182
S'reduce MultipExp->PostfixExp'
p2843
sg184
S'reduce MultipExp->PostfixExp'
p2844
sg194
S'reduce MultipExp->PostfixExp'
p2845
sg157
S'reduce MultipExp->PostfixExp'
p2846
sg187
S'reduce MultipExp->PostfixExp'
p2847
sg161
S'reduce MultipExp->PostfixExp'
p2848
sg64
S'reduce MultipExp->PostfixExp'
p2849
sg191
S'reduce MultipExp->PostfixExp'
p2850
sg217
S'shift 296'
p2851
sg78
S'shift 295'
p2852
sg219
S'shift 297'
p2853
sg76
S'shift 298'
p2854
sg420
S'reduce MultipExp->PostfixExp'
p2855
sg167
S'reduce MultipExp->PostfixExp'
p2856
sg169
S'reduce MultipExp->PostfixExp'
p2857
sa(dp2858
g178
S'reduce PostfixExp->PrimaryExp'
p2859
sg180
S'reduce PostfixExp->PrimaryExp'
p2860
sg182
S'reduce PostfixExp->PrimaryExp'
p2861
sg184
S'reduce PostfixExp->PrimaryExp'
p2862
sg194
S'reduce PostfixExp->PrimaryExp'
p2863
sg157
S'reduce PostfixExp->PrimaryExp'
p2864
sg187
S'reduce PostfixExp->PrimaryExp'
p2865
sg161
S'reduce PostfixExp->PrimaryExp'
p2866
sg64
S'reduce PostfixExp->PrimaryExp'
p2867
sg191
S'reduce PostfixExp->PrimaryExp'
p2868
sg246
S'reduce PostfixExp->PrimaryExp'
p2869
sg78
S'reduce PostfixExp->PrimaryExp'
p2870
sg248
S'reduce PostfixExp->PrimaryExp'
p2871
sg76
S'reduce PostfixExp->PrimaryExp'
p2872
sg420
S'reduce PostfixExp->PrimaryExp'
p2873
sg167
S'reduce PostfixExp->PrimaryExp'
p2874
sg169
S'reduce PostfixExp->PrimaryExp'
p2875
sa(dp2876
g420
S'reduce RalExp->AddExp RalOp RalExp'
p2877
sg64
S'reduce RalExp->AddExp RalOp RalExp'
p2878
sa(dp2879
g84
S'shift 263'
p2880
sg86
S'shift 258'
p2881
sg88
S'shift 261'
p2882
sg78
S'shift 259'
p2883
sg91
S'shift 264'
p2884
sg93
S'shift 262'
p2885
sg42
S'shift 260'
p2886
sa(dp2887
g84
S'shift 111'
p2888
sg86
S'shift 106'
p2889
sg88
S'shift 109'
p2890
sg78
S'shift 107'
p2891
sg91
S'shift 112'
p2892
sg93
S'shift 110'
p2893
sg42
S'shift 108'
p2894
sa(dp2895
g178
S'reduce PrimaryExp->id'
p2896
sg180
S'reduce PrimaryExp->id'
p2897
sg182
S'reduce PrimaryExp->id'
p2898
sg184
S'reduce PrimaryExp->id'
p2899
sg194
S'reduce PrimaryExp->id'
p2900
sg157
S'reduce PrimaryExp->id'
p2901
sg187
S'reduce PrimaryExp->id'
p2902
sg161
S'reduce PrimaryExp->id'
p2903
sg64
S'reduce PrimaryExp->id'
p2904
sg191
S'reduce PrimaryExp->id'
p2905
sg246
S'reduce PrimaryExp->id'
p2906
sg78
S'reduce PrimaryExp->id'
p2907
sg248
S'reduce PrimaryExp->id'
p2908
sg76
S'reduce PrimaryExp->id'
p2909
sg420
S'reduce PrimaryExp->id'
p2910
sg167
S'reduce PrimaryExp->id'
p2911
sg169
S'reduce PrimaryExp->id'
p2912
sa(dp2913
g178
S'reduce PrimaryExp->INT'
p2914
sg180
S'reduce PrimaryExp->INT'
p2915
sg182
S'reduce PrimaryExp->INT'
p2916
sg184
S'reduce PrimaryExp->INT'
p2917
sg194
S'reduce PrimaryExp->INT'
p2918
sg157
S'reduce PrimaryExp->INT'
p2919
sg187
S'reduce PrimaryExp->INT'
p2920
sg161
S'reduce PrimaryExp->INT'
p2921
sg64
S'reduce PrimaryExp->INT'
p2922
sg191
S'reduce PrimaryExp->INT'
p2923
sg246
S'reduce PrimaryExp->INT'
p2924
sg78
S'reduce PrimaryExp->INT'
p2925
sg248
S'reduce PrimaryExp->INT'
p2926
sg76
S'reduce PrimaryExp->INT'
p2927
sg420
S'reduce PrimaryExp->INT'
p2928
sg167
S'reduce PrimaryExp->INT'
p2929
sg169
S'reduce PrimaryExp->INT'
p2930
sa(dp2931
g178
S'reduce PrimaryExp->DOUBLE'
p2932
sg180
S'reduce PrimaryExp->DOUBLE'
p2933
sg182
S'reduce PrimaryExp->DOUBLE'
p2934
sg184
S'reduce PrimaryExp->DOUBLE'
p2935
sg194
S'reduce PrimaryExp->DOUBLE'
p2936
sg157
S'reduce PrimaryExp->DOUBLE'
p2937
sg187
S'reduce PrimaryExp->DOUBLE'
p2938
sg161
S'reduce PrimaryExp->DOUBLE'
p2939
sg64
S'reduce PrimaryExp->DOUBLE'
p2940
sg191
S'reduce PrimaryExp->DOUBLE'
p2941
sg246
S'reduce PrimaryExp->DOUBLE'
p2942
sg78
S'reduce PrimaryExp->DOUBLE'
p2943
sg248
S'reduce PrimaryExp->DOUBLE'
p2944
sg76
S'reduce PrimaryExp->DOUBLE'
p2945
sg420
S'reduce PrimaryExp->DOUBLE'
p2946
sg167
S'reduce PrimaryExp->DOUBLE'
p2947
sg169
S'reduce PrimaryExp->DOUBLE'
p2948
sa(dp2949
g178
S'reduce PrimaryExp->STRING'
p2950
sg180
S'reduce PrimaryExp->STRING'
p2951
sg182
S'reduce PrimaryExp->STRING'
p2952
sg184
S'reduce PrimaryExp->STRING'
p2953
sg194
S'reduce PrimaryExp->STRING'
p2954
sg157
S'reduce PrimaryExp->STRING'
p2955
sg187
S'reduce PrimaryExp->STRING'
p2956
sg161
S'reduce PrimaryExp->STRING'
p2957
sg64
S'reduce PrimaryExp->STRING'
p2958
sg191
S'reduce PrimaryExp->STRING'
p2959
sg246
S'reduce PrimaryExp->STRING'
p2960
sg78
S'reduce PrimaryExp->STRING'
p2961
sg248
S'reduce PrimaryExp->STRING'
p2962
sg76
S'reduce PrimaryExp->STRING'
p2963
sg420
S'reduce PrimaryExp->STRING'
p2964
sg167
S'reduce PrimaryExp->STRING'
p2965
sg169
S'reduce PrimaryExp->STRING'
p2966
sa(dp2967
g178
S'reduce PrimaryExp->CHAR'
p2968
sg180
S'reduce PrimaryExp->CHAR'
p2969
sg182
S'reduce PrimaryExp->CHAR'
p2970
sg184
S'reduce PrimaryExp->CHAR'
p2971
sg194
S'reduce PrimaryExp->CHAR'
p2972
sg157
S'reduce PrimaryExp->CHAR'
p2973
sg187
S'reduce PrimaryExp->CHAR'
p2974
sg161
S'reduce PrimaryExp->CHAR'
p2975
sg64
S'reduce PrimaryExp->CHAR'
p2976
sg191
S'reduce PrimaryExp->CHAR'
p2977
sg246
S'reduce PrimaryExp->CHAR'
p2978
sg78
S'reduce PrimaryExp->CHAR'
p2979
sg248
S'reduce PrimaryExp->CHAR'
p2980
sg76
S'reduce PrimaryExp->CHAR'
p2981
sg420
S'reduce PrimaryExp->CHAR'
p2982
sg167
S'reduce PrimaryExp->CHAR'
p2983
sg169
S'reduce PrimaryExp->CHAR'
p2984
sa(dp2985
g178
S'shift 198'
p2986
sg180
S'shift 197'
p2987
sg182
S'reduce AddExp->AddExp + MultipExp'
p2988
sg184
S'reduce AddExp->AddExp + MultipExp'
p2989
sg194
S'reduce AddExp->AddExp + MultipExp'
p2990
sg157
S'reduce AddExp->AddExp + MultipExp'
p2991
sg187
S'reduce AddExp->AddExp + MultipExp'
p2992
sg161
S'reduce AddExp->AddExp + MultipExp'
p2993
sg64
S'reduce AddExp->AddExp + MultipExp'
p2994
sg191
S'shift 199'
p2995
sg420
S'reduce AddExp->AddExp + MultipExp'
p2996
sg167
S'reduce AddExp->AddExp + MultipExp'
p2997
sg169
S'reduce AddExp->AddExp + MultipExp'
p2998
sa(dp2999
g178
S'shift 198'
p3000
sg180
S'shift 197'
p3001
sg182
S'reduce AddExp->AddExp - MultipExp'
p3002
sg184
S'reduce AddExp->AddExp - MultipExp'
p3003
sg194
S'reduce AddExp->AddExp - MultipExp'
p3004
sg157
S'reduce AddExp->AddExp - MultipExp'
p3005
sg187
S'reduce AddExp->AddExp - MultipExp'
p3006
sg161
S'reduce AddExp->AddExp - MultipExp'
p3007
sg64
S'reduce AddExp->AddExp - MultipExp'
p3008
sg191
S'shift 199'
p3009
sg420
S'reduce AddExp->AddExp - MultipExp'
p3010
sg167
S'reduce AddExp->AddExp - MultipExp'
p3011
sg169
S'reduce AddExp->AddExp - MultipExp'
p3012
sa(dp3013
g420
S'reduce InitializerList->Initializer , InitializerList'
p3014
sa(dp3015
g178
S'reduce MultipExp->MultipExp % PostfixExp'
p3016
sg180
S'reduce MultipExp->MultipExp % PostfixExp'
p3017
sg182
S'reduce MultipExp->MultipExp % PostfixExp'
p3018
sg184
S'reduce MultipExp->MultipExp % PostfixExp'
p3019
sg194
S'reduce MultipExp->MultipExp % PostfixExp'
p3020
sg157
S'reduce MultipExp->MultipExp % PostfixExp'
p3021
sg187
S'reduce MultipExp->MultipExp % PostfixExp'
p3022
sg161
S'reduce MultipExp->MultipExp % PostfixExp'
p3023
sg64
S'reduce MultipExp->MultipExp % PostfixExp'
p3024
sg191
S'reduce MultipExp->MultipExp % PostfixExp'
p3025
sg217
S'shift 296'
p3026
sg78
S'shift 295'
p3027
sg219
S'shift 297'
p3028
sg76
S'shift 298'
p3029
sg420
S'reduce MultipExp->MultipExp % PostfixExp'
p3030
sg167
S'reduce MultipExp->MultipExp % PostfixExp'
p3031
sg169
S'reduce MultipExp->MultipExp % PostfixExp'
p3032
sa(dp3033
g178
S'reduce MultipExp->MultipExp * PostfixExp'
p3034
sg180
S'reduce MultipExp->MultipExp * PostfixExp'
p3035
sg182
S'reduce MultipExp->MultipExp * PostfixExp'
p3036
sg184
S'reduce MultipExp->MultipExp * PostfixExp'
p3037
sg194
S'reduce MultipExp->MultipExp * PostfixExp'
p3038
sg157
S'reduce MultipExp->MultipExp * PostfixExp'
p3039
sg187
S'reduce MultipExp->MultipExp * PostfixExp'
p3040
sg161
S'reduce MultipExp->MultipExp * PostfixExp'
p3041
sg64
S'reduce MultipExp->MultipExp * PostfixExp'
p3042
sg191
S'reduce MultipExp->MultipExp * PostfixExp'
p3043
sg217
S'shift 296'
p3044
sg78
S'shift 295'
p3045
sg219
S'shift 297'
p3046
sg76
S'shift 298'
p3047
sg420
S'reduce MultipExp->MultipExp * PostfixExp'
p3048
sg167
S'reduce MultipExp->MultipExp * PostfixExp'
p3049
sg169
S'reduce MultipExp->MultipExp * PostfixExp'
p3050
sa(dp3051
g178
S'reduce MultipExp->MultipExp / PostfixExp'
p3052
sg180
S'reduce MultipExp->MultipExp / PostfixExp'
p3053
sg182
S'reduce MultipExp->MultipExp / PostfixExp'
p3054
sg184
S'reduce MultipExp->MultipExp / PostfixExp'
p3055
sg194
S'reduce MultipExp->MultipExp / PostfixExp'
p3056
sg157
S'reduce MultipExp->MultipExp / PostfixExp'
p3057
sg187
S'reduce MultipExp->MultipExp / PostfixExp'
p3058
sg161
S'reduce MultipExp->MultipExp / PostfixExp'
p3059
sg64
S'reduce MultipExp->MultipExp / PostfixExp'
p3060
sg191
S'reduce MultipExp->MultipExp / PostfixExp'
p3061
sg217
S'shift 296'
p3062
sg78
S'shift 295'
p3063
sg219
S'shift 297'
p3064
sg76
S'shift 298'
p3065
sg420
S'reduce MultipExp->MultipExp / PostfixExp'
p3066
sg167
S'reduce MultipExp->MultipExp / PostfixExp'
p3067
sg169
S'reduce MultipExp->MultipExp / PostfixExp'
p3068
sa(dp3069
g420
S'reduce AssignExp->PostfixExp AssignOp AssignExp'
p3070
sg64
S'reduce AssignExp->PostfixExp AssignOp AssignExp'
p3071
sa(dp3072
g138
S'shift 301'
p3073
sg64
S'shift 232'
p3074
sa(dp3075
g182
S'reduce PostfixExp->PostfixExp ( )'
p3076
sg187
S'reduce PostfixExp->PostfixExp ( )'
p3077
sg194
S'reduce PostfixExp->PostfixExp ( )'
p3078
sg180
S'reduce PostfixExp->PostfixExp ( )'
p3079
sg78
S'reduce PostfixExp->PostfixExp ( )'
p3080
sg157
S'reduce PostfixExp->PostfixExp ( )'
p3081
sg178
S'reduce PostfixExp->PostfixExp ( )'
p3082
sg161
S'reduce PostfixExp->PostfixExp ( )'
p3083
sg64
S'reduce PostfixExp->PostfixExp ( )'
p3084
sg191
S'reduce PostfixExp->PostfixExp ( )'
p3085
sg62
S'reduce PostfixExp->PostfixExp ( )'
p3086
sg167
S'reduce PostfixExp->PostfixExp ( )'
p3087
sg169
S'reduce PostfixExp->PostfixExp ( )'
p3088
sg242
S'reduce PostfixExp->PostfixExp ( )'
p3089
sg184
S'reduce PostfixExp->PostfixExp ( )'
p3090
sg76
S'reduce PostfixExp->PostfixExp ( )'
p3091
sg246
S'reduce PostfixExp->PostfixExp ( )'
p3092
sg248
S'reduce PostfixExp->PostfixExp ( )'
p3093
sg250
S'reduce PostfixExp->PostfixExp ( )'
p3094
sg252
S'reduce PostfixExp->PostfixExp ( )'
p3095
sg420
S'reduce PostfixExp->PostfixExp ( )'
p3096
sg254
S'reduce PostfixExp->PostfixExp ( )'
p3097
sa(dp3098
g668
S'shift 302'
p3099
sg157
S'shift 145'
p3100
sg161
S'shift 146'
p3101
sa(dp3102
g182
S'reduce PrimaryExp->( Exp )'
p3103
sg187
S'reduce PrimaryExp->( Exp )'
p3104
sg194
S'reduce PrimaryExp->( Exp )'
p3105
sg180
S'reduce PrimaryExp->( Exp )'
p3106
sg78
S'reduce PrimaryExp->( Exp )'
p3107
sg157
S'reduce PrimaryExp->( Exp )'
p3108
sg178
S'reduce PrimaryExp->( Exp )'
p3109
sg161
S'reduce PrimaryExp->( Exp )'
p3110
sg64
S'reduce PrimaryExp->( Exp )'
p3111
sg191
S'reduce PrimaryExp->( Exp )'
p3112
sg62
S'reduce PrimaryExp->( Exp )'
p3113
sg167
S'reduce PrimaryExp->( Exp )'
p3114
sg169
S'reduce PrimaryExp->( Exp )'
p3115
sg242
S'reduce PrimaryExp->( Exp )'
p3116
sg184
S'reduce PrimaryExp->( Exp )'
p3117
sg76
S'reduce PrimaryExp->( Exp )'
p3118
sg246
S'reduce PrimaryExp->( Exp )'
p3119
sg248
S'reduce PrimaryExp->( Exp )'
p3120
sg250
S'reduce PrimaryExp->( Exp )'
p3121
sg252
S'reduce PrimaryExp->( Exp )'
p3122
sg420
S'reduce PrimaryExp->( Exp )'
p3123
sg254
S'reduce PrimaryExp->( Exp )'
p3124
sa(dp3125
g420
S'reduce Initializer->{ InitializerList }'
p3126
sg64
S'reduce Initializer->{ InitializerList }'
p3127
sa(dp3128
g91
S'shift 37'
p3129
sg106
S'shift 313'
p3130
sg84
S'shift 36'
p3131
sg109
S'shift 315'
p3132
sg86
S'shift 31'
p3133
sg88
S'shift 34'
p3134
sg78
S'shift 32'
p3135
sg115
S'shift 311'
p3136
sg118
S'shift 316'
p3137
sg120
S'shift 312'
p3138
sg93
S'shift 35'
p3139
sg67
S'shift 317'
p3140
sg60
S'shift 310'
p3141
sg42
S'shift 33'
p3142
sg127
S'shift 314'
p3143
sa(dp3144
g84
S'shift 36'
p3145
sg86
S'shift 31'
p3146
sg88
S'shift 34'
p3147
sg78
S'shift 32'
p3148
sg91
S'shift 37'
p3149
sg93
S'shift 35'
p3150
sg42
S'shift 33'
p3151
sa(dp3152
g91
S'shift 37'
p3153
sg106
S'shift 54'
p3154
sg84
S'shift 36'
p3155
sg109
S'shift 56'
p3156
sg86
S'shift 31'
p3157
sg88
S'shift 34'
p3158
sg78
S'shift 32'
p3159
sg115
S'shift 52'
p3160
sg118
S'shift 57'
p3161
sg120
S'shift 53'
p3162
sg93
S'shift 35'
p3163
sg67
S'shift 58'
p3164
sg60
S'shift 51'
p3165
sg42
S'shift 33'
p3166
sg127
S'shift 55'
p3167
sa(dp3168
g180
S'reduce PostfixExp->PostfixExp ( ArgExpList )'
p3169
sg246
S'reduce PostfixExp->PostfixExp ( ArgExpList )'
p3170
sg78
S'reduce PostfixExp->PostfixExp ( ArgExpList )'
p3171
sg157
S'reduce PostfixExp->PostfixExp ( ArgExpList )'
p3172
sg178
S'reduce PostfixExp->PostfixExp ( ArgExpList )'
p3173
sg161
S'reduce PostfixExp->PostfixExp ( ArgExpList )'
p3174
sg191
S'reduce PostfixExp->PostfixExp ( ArgExpList )'
p3175
sg248
S'reduce PostfixExp->PostfixExp ( ArgExpList )'
p3176
sg76
S'reduce PostfixExp->PostfixExp ( ArgExpList )'
p3177
sg668
S'reduce PostfixExp->PostfixExp ( ArgExpList )'
p3178
sa(dp3179
g180
S'reduce PostfixExp->PostfixExp [ AddExp ]'
p3180
sg246
S'reduce PostfixExp->PostfixExp [ AddExp ]'
p3181
sg78
S'reduce PostfixExp->PostfixExp [ AddExp ]'
p3182
sg157
S'reduce PostfixExp->PostfixExp [ AddExp ]'
p3183
sg178
S'reduce PostfixExp->PostfixExp [ AddExp ]'
p3184
sg161
S'reduce PostfixExp->PostfixExp [ AddExp ]'
p3185
sg191
S'reduce PostfixExp->PostfixExp [ AddExp ]'
p3186
sg248
S'reduce PostfixExp->PostfixExp [ AddExp ]'
p3187
sg76
S'reduce PostfixExp->PostfixExp [ AddExp ]'
p3188
sg668
S'reduce PostfixExp->PostfixExp [ AddExp ]'
p3189
sa(dp3190
g138
S'shift 320'
p3191
sg64
S'shift 232'
p3192
sa(dp3193
g178
S'reduce PostfixExp->PostfixExp ( )'
p3194
sg180
S'reduce PostfixExp->PostfixExp ( )'
p3195
sg182
S'reduce PostfixExp->PostfixExp ( )'
p3196
sg184
S'reduce PostfixExp->PostfixExp ( )'
p3197
sg78
S'reduce PostfixExp->PostfixExp ( )'
p3198
sg157
S'reduce PostfixExp->PostfixExp ( )'
p3199
sg187
S'reduce PostfixExp->PostfixExp ( )'
p3200
sg161
S'reduce PostfixExp->PostfixExp ( )'
p3201
sg64
S'reduce PostfixExp->PostfixExp ( )'
p3202
sg191
S'reduce PostfixExp->PostfixExp ( )'
p3203
sg246
S'reduce PostfixExp->PostfixExp ( )'
p3204
sg76
S'reduce PostfixExp->PostfixExp ( )'
p3205
sg248
S'reduce PostfixExp->PostfixExp ( )'
p3206
sg60
S'reduce PostfixExp->PostfixExp ( )'
p3207
sg194
S'reduce PostfixExp->PostfixExp ( )'
p3208
sg167
S'reduce PostfixExp->PostfixExp ( )'
p3209
sg169
S'reduce PostfixExp->PostfixExp ( )'
p3210
sa(dp3211
g668
S'shift 321'
p3212
sg157
S'shift 145'
p3213
sg161
S'shift 146'
p3214
sa(dp3215
g178
S'reduce PrimaryExp->( Exp )'
p3216
sg180
S'reduce PrimaryExp->( Exp )'
p3217
sg182
S'reduce PrimaryExp->( Exp )'
p3218
sg184
S'reduce PrimaryExp->( Exp )'
p3219
sg78
S'reduce PrimaryExp->( Exp )'
p3220
sg157
S'reduce PrimaryExp->( Exp )'
p3221
sg187
S'reduce PrimaryExp->( Exp )'
p3222
sg161
S'reduce PrimaryExp->( Exp )'
p3223
sg64
S'reduce PrimaryExp->( Exp )'
p3224
sg191
S'reduce PrimaryExp->( Exp )'
p3225
sg246
S'reduce PrimaryExp->( Exp )'
p3226
sg76
S'reduce PrimaryExp->( Exp )'
p3227
sg248
S'reduce PrimaryExp->( Exp )'
p3228
sg60
S'reduce PrimaryExp->( Exp )'
p3229
sg194
S'reduce PrimaryExp->( Exp )'
p3230
sg167
S'reduce PrimaryExp->( Exp )'
p3231
sg169
S'reduce PrimaryExp->( Exp )'
p3232
sa(dp3233
g138
S'reduce ArgExpList->ArgExpList , AssignExp'
p3234
sg64
S'reduce ArgExpList->ArgExpList , AssignExp'
p3235
sa(dp3236
g84
S'shift 111'
p3237
sg86
S'shift 106'
p3238
sg138
S'shift 323'
p3239
sg78
S'shift 107'
p3240
sg91
S'shift 112'
p3241
sg88
S'shift 109'
p3242
sg93
S'shift 110'
p3243
sg42
S'shift 108'
p3244
sa(dp3245
g178
S'reduce PostfixExp->PostfixExp ++'
p3246
sg180
S'reduce PostfixExp->PostfixExp ++'
p3247
sg182
S'reduce PostfixExp->PostfixExp ++'
p3248
sg138
S'reduce PostfixExp->PostfixExp ++'
p3249
sg78
S'reduce PostfixExp->PostfixExp ++'
p3250
sg246
S'reduce PostfixExp->PostfixExp ++'
p3251
sg187
S'reduce PostfixExp->PostfixExp ++'
p3252
sg161
S'reduce PostfixExp->PostfixExp ++'
p3253
sg64
S'reduce PostfixExp->PostfixExp ++'
p3254
sg191
S'reduce PostfixExp->PostfixExp ++'
p3255
sg184
S'reduce PostfixExp->PostfixExp ++'
p3256
sg157
S'reduce PostfixExp->PostfixExp ++'
p3257
sg248
S'reduce PostfixExp->PostfixExp ++'
p3258
sg76
S'reduce PostfixExp->PostfixExp ++'
p3259
sg194
S'reduce PostfixExp->PostfixExp ++'
p3260
sg167
S'reduce PostfixExp->PostfixExp ++'
p3261
sg169
S'reduce PostfixExp->PostfixExp ++'
p3262
sa(dp3263
g178
S'reduce PostfixExp->PostfixExp --'
p3264
sg180
S'reduce PostfixExp->PostfixExp --'
p3265
sg182
S'reduce PostfixExp->PostfixExp --'
p3266
sg138
S'reduce PostfixExp->PostfixExp --'
p3267
sg78
S'reduce PostfixExp->PostfixExp --'
p3268
sg246
S'reduce PostfixExp->PostfixExp --'
p3269
sg187
S'reduce PostfixExp->PostfixExp --'
p3270
sg161
S'reduce PostfixExp->PostfixExp --'
p3271
sg64
S'reduce PostfixExp->PostfixExp --'
p3272
sg191
S'reduce PostfixExp->PostfixExp --'
p3273
sg184
S'reduce PostfixExp->PostfixExp --'
p3274
sg157
S'reduce PostfixExp->PostfixExp --'
p3275
sg248
S'reduce PostfixExp->PostfixExp --'
p3276
sg76
S'reduce PostfixExp->PostfixExp --'
p3277
sg194
S'reduce PostfixExp->PostfixExp --'
p3278
sg167
S'reduce PostfixExp->PostfixExp --'
p3279
sg169
S'reduce PostfixExp->PostfixExp --'
p3280
sa(dp3281
g84
S'shift 74'
p3282
sg86
S'shift 69'
p3283
sg88
S'shift 72'
p3284
sg78
S'shift 70'
p3285
sg91
S'shift 75'
p3286
sg93
S'shift 73'
p3287
sg42
S'shift 71'
p3288
sa(dp3289
g178
S'reduce PostfixExp->& PostfixExp'
p3290
sg180
S'reduce PostfixExp->& PostfixExp'
p3291
sg182
S'reduce PostfixExp->& PostfixExp'
p3292
sg138
S'reduce PostfixExp->& PostfixExp'
p3293
sg78
S'reduce PostfixExp->& PostfixExp'
p3294
sg246
S'reduce PostfixExp->& PostfixExp'
p3295
sg187
S'reduce PostfixExp->& PostfixExp'
p3296
sg161
S'reduce PostfixExp->& PostfixExp'
p3297
sg64
S'reduce PostfixExp->& PostfixExp'
p3298
sg191
S'reduce PostfixExp->& PostfixExp'
p3299
sg184
S'reduce PostfixExp->& PostfixExp'
p3300
sg157
S'reduce PostfixExp->& PostfixExp'
p3301
sg248
S'reduce PostfixExp->& PostfixExp'
p3302
sg76
S'reduce PostfixExp->& PostfixExp'
p3303
sg194
S'reduce PostfixExp->& PostfixExp'
p3304
sg167
S'reduce PostfixExp->& PostfixExp'
p3305
sg169
S'reduce PostfixExp->& PostfixExp'
p3306
sa(dp3307
g138
S'shift 325'
p3308
sg64
S'shift 181'
p3309
sa(dp3310
g182
S'reduce PostfixExp->PostfixExp ( ArgExpList )'
p3311
sg187
S'reduce PostfixExp->PostfixExp ( ArgExpList )'
p3312
sg194
S'reduce PostfixExp->PostfixExp ( ArgExpList )'
p3313
sg180
S'reduce PostfixExp->PostfixExp ( ArgExpList )'
p3314
sg138
S'reduce PostfixExp->PostfixExp ( ArgExpList )'
p3315
sg78
S'reduce PostfixExp->PostfixExp ( ArgExpList )'
p3316
sg157
S'reduce PostfixExp->PostfixExp ( ArgExpList )'
p3317
sg178
S'reduce PostfixExp->PostfixExp ( ArgExpList )'
p3318
sg161
S'reduce PostfixExp->PostfixExp ( ArgExpList )'
p3319
sg64
S'reduce PostfixExp->PostfixExp ( ArgExpList )'
p3320
sg191
S'reduce PostfixExp->PostfixExp ( ArgExpList )'
p3321
sg62
S'reduce PostfixExp->PostfixExp ( ArgExpList )'
p3322
sg167
S'reduce PostfixExp->PostfixExp ( ArgExpList )'
p3323
sg169
S'reduce PostfixExp->PostfixExp ( ArgExpList )'
p3324
sg242
S'reduce PostfixExp->PostfixExp ( ArgExpList )'
p3325
sg184
S'reduce PostfixExp->PostfixExp ( ArgExpList )'
p3326
sg76
S'reduce PostfixExp->PostfixExp ( ArgExpList )'
p3327
sg246
S'reduce PostfixExp->PostfixExp ( ArgExpList )'
p3328
sg248
S'reduce PostfixExp->PostfixExp ( ArgExpList )'
p3329
sg250
S'reduce PostfixExp->PostfixExp ( ArgExpList )'
p3330
sg252
S'reduce PostfixExp->PostfixExp ( ArgExpList )'
p3331
sg254
S'reduce PostfixExp->PostfixExp ( ArgExpList )'
p3332
sa(dp3333
g182
S'reduce PostfixExp->PostfixExp [ AddExp ]'
p3334
sg187
S'reduce PostfixExp->PostfixExp [ AddExp ]'
p3335
sg194
S'reduce PostfixExp->PostfixExp [ AddExp ]'
p3336
sg180
S'reduce PostfixExp->PostfixExp [ AddExp ]'
p3337
sg138
S'reduce PostfixExp->PostfixExp [ AddExp ]'
p3338
sg78
S'reduce PostfixExp->PostfixExp [ AddExp ]'
p3339
sg157
S'reduce PostfixExp->PostfixExp [ AddExp ]'
p3340
sg178
S'reduce PostfixExp->PostfixExp [ AddExp ]'
p3341
sg161
S'reduce PostfixExp->PostfixExp [ AddExp ]'
p3342
sg64
S'reduce PostfixExp->PostfixExp [ AddExp ]'
p3343
sg191
S'reduce PostfixExp->PostfixExp [ AddExp ]'
p3344
sg62
S'reduce PostfixExp->PostfixExp [ AddExp ]'
p3345
sg167
S'reduce PostfixExp->PostfixExp [ AddExp ]'
p3346
sg169
S'reduce PostfixExp->PostfixExp [ AddExp ]'
p3347
sg242
S'reduce PostfixExp->PostfixExp [ AddExp ]'
p3348
sg184
S'reduce PostfixExp->PostfixExp [ AddExp ]'
p3349
sg76
S'reduce PostfixExp->PostfixExp [ AddExp ]'
p3350
sg246
S'reduce PostfixExp->PostfixExp [ AddExp ]'
p3351
sg248
S'reduce PostfixExp->PostfixExp [ AddExp ]'
p3352
sg250
S'reduce PostfixExp->PostfixExp [ AddExp ]'
p3353
sg252
S'reduce PostfixExp->PostfixExp [ AddExp ]'
p3354
sg254
S'reduce PostfixExp->PostfixExp [ AddExp ]'
p3355
sa(dp3356
g84
S'shift 111'
p3357
sg86
S'shift 106'
p3358
sg138
S'shift 327'
p3359
sg78
S'shift 107'
p3360
sg91
S'shift 112'
p3361
sg88
S'shift 109'
p3362
sg93
S'shift 110'
p3363
sg42
S'shift 108'
p3364
sa(dp3365
g178
S'reduce PostfixExp->PostfixExp ++'
p3366
sg180
S'reduce PostfixExp->PostfixExp ++'
p3367
sg182
S'reduce PostfixExp->PostfixExp ++'
p3368
sg184
S'reduce PostfixExp->PostfixExp ++'
p3369
sg194
S'reduce PostfixExp->PostfixExp ++'
p3370
sg157
S'reduce PostfixExp->PostfixExp ++'
p3371
sg187
S'reduce PostfixExp->PostfixExp ++'
p3372
sg161
S'reduce PostfixExp->PostfixExp ++'
p3373
sg64
S'reduce PostfixExp->PostfixExp ++'
p3374
sg191
S'reduce PostfixExp->PostfixExp ++'
p3375
sg246
S'reduce PostfixExp->PostfixExp ++'
p3376
sg78
S'reduce PostfixExp->PostfixExp ++'
p3377
sg248
S'reduce PostfixExp->PostfixExp ++'
p3378
sg76
S'reduce PostfixExp->PostfixExp ++'
p3379
sg420
S'reduce PostfixExp->PostfixExp ++'
p3380
sg167
S'reduce PostfixExp->PostfixExp ++'
p3381
sg169
S'reduce PostfixExp->PostfixExp ++'
p3382
sa(dp3383
g178
S'reduce PostfixExp->PostfixExp --'
p3384
sg180
S'reduce PostfixExp->PostfixExp --'
p3385
sg182
S'reduce PostfixExp->PostfixExp --'
p3386
sg184
S'reduce PostfixExp->PostfixExp --'
p3387
sg194
S'reduce PostfixExp->PostfixExp --'
p3388
sg157
S'reduce PostfixExp->PostfixExp --'
p3389
sg187
S'reduce PostfixExp->PostfixExp --'
p3390
sg161
S'reduce PostfixExp->PostfixExp --'
p3391
sg64
S'reduce PostfixExp->PostfixExp --'
p3392
sg191
S'reduce PostfixExp->PostfixExp --'
p3393
sg246
S'reduce PostfixExp->PostfixExp --'
p3394
sg78
S'reduce PostfixExp->PostfixExp --'
p3395
sg248
S'reduce PostfixExp->PostfixExp --'
p3396
sg76
S'reduce PostfixExp->PostfixExp --'
p3397
sg420
S'reduce PostfixExp->PostfixExp --'
p3398
sg167
S'reduce PostfixExp->PostfixExp --'
p3399
sg169
S'reduce PostfixExp->PostfixExp --'
p3400
sa(dp3401
g84
S'shift 74'
p3402
sg86
S'shift 69'
p3403
sg88
S'shift 72'
p3404
sg78
S'shift 70'
p3405
sg91
S'shift 75'
p3406
sg93
S'shift 73'
p3407
sg42
S'shift 71'
p3408
sa(dp3409
g178
S'reduce PostfixExp->& PostfixExp'
p3410
sg180
S'reduce PostfixExp->& PostfixExp'
p3411
sg182
S'reduce PostfixExp->& PostfixExp'
p3412
sg184
S'reduce PostfixExp->& PostfixExp'
p3413
sg194
S'reduce PostfixExp->& PostfixExp'
p3414
sg157
S'reduce PostfixExp->& PostfixExp'
p3415
sg187
S'reduce PostfixExp->& PostfixExp'
p3416
sg161
S'reduce PostfixExp->& PostfixExp'
p3417
sg64
S'reduce PostfixExp->& PostfixExp'
p3418
sg191
S'reduce PostfixExp->& PostfixExp'
p3419
sg246
S'reduce PostfixExp->& PostfixExp'
p3420
sg78
S'reduce PostfixExp->& PostfixExp'
p3421
sg248
S'reduce PostfixExp->& PostfixExp'
p3422
sg76
S'reduce PostfixExp->& PostfixExp'
p3423
sg420
S'reduce PostfixExp->& PostfixExp'
p3424
sg167
S'reduce PostfixExp->& PostfixExp'
p3425
sg169
S'reduce PostfixExp->& PostfixExp'
p3426
sa(dp3427
g138
S'shift 329'
p3428
sg64
S'shift 181'
p3429
sa(dp3430
g182
S'reduce PostfixExp->PostfixExp ( ArgExpList )'
p3431
sg187
S'reduce PostfixExp->PostfixExp ( ArgExpList )'
p3432
sg194
S'reduce PostfixExp->PostfixExp ( ArgExpList )'
p3433
sg180
S'reduce PostfixExp->PostfixExp ( ArgExpList )'
p3434
sg78
S'reduce PostfixExp->PostfixExp ( ArgExpList )'
p3435
sg157
S'reduce PostfixExp->PostfixExp ( ArgExpList )'
p3436
sg178
S'reduce PostfixExp->PostfixExp ( ArgExpList )'
p3437
sg161
S'reduce PostfixExp->PostfixExp ( ArgExpList )'
p3438
sg64
S'reduce PostfixExp->PostfixExp ( ArgExpList )'
p3439
sg191
S'reduce PostfixExp->PostfixExp ( ArgExpList )'
p3440
sg62
S'reduce PostfixExp->PostfixExp ( ArgExpList )'
p3441
sg167
S'reduce PostfixExp->PostfixExp ( ArgExpList )'
p3442
sg169
S'reduce PostfixExp->PostfixExp ( ArgExpList )'
p3443
sg242
S'reduce PostfixExp->PostfixExp ( ArgExpList )'
p3444
sg184
S'reduce PostfixExp->PostfixExp ( ArgExpList )'
p3445
sg76
S'reduce PostfixExp->PostfixExp ( ArgExpList )'
p3446
sg246
S'reduce PostfixExp->PostfixExp ( ArgExpList )'
p3447
sg248
S'reduce PostfixExp->PostfixExp ( ArgExpList )'
p3448
sg250
S'reduce PostfixExp->PostfixExp ( ArgExpList )'
p3449
sg252
S'reduce PostfixExp->PostfixExp ( ArgExpList )'
p3450
sg420
S'reduce PostfixExp->PostfixExp ( ArgExpList )'
p3451
sg254
S'reduce PostfixExp->PostfixExp ( ArgExpList )'
p3452
sa(dp3453
g182
S'reduce PostfixExp->PostfixExp [ AddExp ]'
p3454
sg187
S'reduce PostfixExp->PostfixExp [ AddExp ]'
p3455
sg194
S'reduce PostfixExp->PostfixExp [ AddExp ]'
p3456
sg180
S'reduce PostfixExp->PostfixExp [ AddExp ]'
p3457
sg78
S'reduce PostfixExp->PostfixExp [ AddExp ]'
p3458
sg157
S'reduce PostfixExp->PostfixExp [ AddExp ]'
p3459
sg178
S'reduce PostfixExp->PostfixExp [ AddExp ]'
p3460
sg161
S'reduce PostfixExp->PostfixExp [ AddExp ]'
p3461
sg64
S'reduce PostfixExp->PostfixExp [ AddExp ]'
p3462
sg191
S'reduce PostfixExp->PostfixExp [ AddExp ]'
p3463
sg62
S'reduce PostfixExp->PostfixExp [ AddExp ]'
p3464
sg167
S'reduce PostfixExp->PostfixExp [ AddExp ]'
p3465
sg169
S'reduce PostfixExp->PostfixExp [ AddExp ]'
p3466
sg242
S'reduce PostfixExp->PostfixExp [ AddExp ]'
p3467
sg184
S'reduce PostfixExp->PostfixExp [ AddExp ]'
p3468
sg76
S'reduce PostfixExp->PostfixExp [ AddExp ]'
p3469
sg246
S'reduce PostfixExp->PostfixExp [ AddExp ]'
p3470
sg248
S'reduce PostfixExp->PostfixExp [ AddExp ]'
p3471
sg250
S'reduce PostfixExp->PostfixExp [ AddExp ]'
p3472
sg252
S'reduce PostfixExp->PostfixExp [ AddExp ]'
p3473
sg420
S'reduce PostfixExp->PostfixExp [ AddExp ]'
p3474
sg254
S'reduce PostfixExp->PostfixExp [ AddExp ]'
p3475
sa(dp3476
g427
S'reduce Stmt->CompoundStmt'
p3477
sg429
S'reduce Stmt->CompoundStmt'
p3478
sg431
S'reduce Stmt->CompoundStmt'
p3479
sg433
S'reduce Stmt->CompoundStmt'
p3480
sg86
S'reduce Stmt->CompoundStmt'
p3481
sg11
S'reduce Stmt->CompoundStmt'
p3482
sg13
S'reduce Stmt->CompoundStmt'
p3483
sg15
S'reduce Stmt->CompoundStmt'
p3484
sS'else'
p3485
S'reduce Stmt->CompoundStmt'
p3486
sg441
S'reduce Stmt->CompoundStmt'
p3487
sg443
S'reduce Stmt->CompoundStmt'
p3488
sg445
S'reduce Stmt->CompoundStmt'
p3489
sg447
S'reduce Stmt->CompoundStmt'
p3490
sg17
S'reduce Stmt->CompoundStmt'
p3491
sg78
S'reduce Stmt->CompoundStmt'
p3492
sg451
S'reduce Stmt->CompoundStmt'
p3493
sg439
S'reduce Stmt->CompoundStmt'
p3494
sg67
S'reduce Stmt->CompoundStmt'
p3495
sg420
S'reduce Stmt->CompoundStmt'
p3496
sg60
S'reduce Stmt->CompoundStmt'
p3497
sg456
S'reduce Stmt->CompoundStmt'
p3498
sa(dp3499
g60
S'shift 330'
p3500
sg64
S'shift 131'
p3501
sa(dp3502
g427
S'reduce Stmt->ExpStmt'
p3503
sg429
S'reduce Stmt->ExpStmt'
p3504
sg431
S'reduce Stmt->ExpStmt'
p3505
sg433
S'reduce Stmt->ExpStmt'
p3506
sg86
S'reduce Stmt->ExpStmt'
p3507
sg11
S'reduce Stmt->ExpStmt'
p3508
sg13
S'reduce Stmt->ExpStmt'
p3509
sg15
S'reduce Stmt->ExpStmt'
p3510
sg3485
S'reduce Stmt->ExpStmt'
p3511
sg441
S'reduce Stmt->ExpStmt'
p3512
sg443
S'reduce Stmt->ExpStmt'
p3513
sg445
S'reduce Stmt->ExpStmt'
p3514
sg447
S'reduce Stmt->ExpStmt'
p3515
sg17
S'reduce Stmt->ExpStmt'
p3516
sg78
S'reduce Stmt->ExpStmt'
p3517
sg451
S'reduce Stmt->ExpStmt'
p3518
sg439
S'reduce Stmt->ExpStmt'
p3519
sg67
S'reduce Stmt->ExpStmt'
p3520
sg420
S'reduce Stmt->ExpStmt'
p3521
sg60
S'reduce Stmt->ExpStmt'
p3522
sg456
S'reduce Stmt->ExpStmt'
p3523
sa(dp3524
g427
S'reduce Stmt->IterationStmt'
p3525
sg429
S'reduce Stmt->IterationStmt'
p3526
sg431
S'reduce Stmt->IterationStmt'
p3527
sg433
S'reduce Stmt->IterationStmt'
p3528
sg86
S'reduce Stmt->IterationStmt'
p3529
sg11
S'reduce Stmt->IterationStmt'
p3530
sg13
S'reduce Stmt->IterationStmt'
p3531
sg15
S'reduce Stmt->IterationStmt'
p3532
sg3485
S'reduce Stmt->IterationStmt'
p3533
sg441
S'reduce Stmt->IterationStmt'
p3534
sg443
S'reduce Stmt->IterationStmt'
p3535
sg445
S'reduce Stmt->IterationStmt'
p3536
sg447
S'reduce Stmt->IterationStmt'
p3537
sg17
S'reduce Stmt->IterationStmt'
p3538
sg78
S'reduce Stmt->IterationStmt'
p3539
sg451
S'reduce Stmt->IterationStmt'
p3540
sg439
S'reduce Stmt->IterationStmt'
p3541
sg67
S'reduce Stmt->IterationStmt'
p3542
sg420
S'reduce Stmt->IterationStmt'
p3543
sg60
S'reduce Stmt->IterationStmt'
p3544
sg456
S'reduce Stmt->IterationStmt'
p3545
sa(dp3546
g427
S'reduce Stmt->JmpStmt'
p3547
sg429
S'reduce Stmt->JmpStmt'
p3548
sg431
S'reduce Stmt->JmpStmt'
p3549
sg433
S'reduce Stmt->JmpStmt'
p3550
sg86
S'reduce Stmt->JmpStmt'
p3551
sg11
S'reduce Stmt->JmpStmt'
p3552
sg13
S'reduce Stmt->JmpStmt'
p3553
sg15
S'reduce Stmt->JmpStmt'
p3554
sg3485
S'reduce Stmt->JmpStmt'
p3555
sg441
S'reduce Stmt->JmpStmt'
p3556
sg443
S'reduce Stmt->JmpStmt'
p3557
sg445
S'reduce Stmt->JmpStmt'
p3558
sg447
S'reduce Stmt->JmpStmt'
p3559
sg17
S'reduce Stmt->JmpStmt'
p3560
sg78
S'reduce Stmt->JmpStmt'
p3561
sg451
S'reduce Stmt->JmpStmt'
p3562
sg439
S'reduce Stmt->JmpStmt'
p3563
sg67
S'reduce Stmt->JmpStmt'
p3564
sg420
S'reduce Stmt->JmpStmt'
p3565
sg60
S'reduce Stmt->JmpStmt'
p3566
sg456
S'reduce Stmt->JmpStmt'
p3567
sa(dp3568
g427
S'reduce Stmt->SelectStmt'
p3569
sg429
S'reduce Stmt->SelectStmt'
p3570
sg431
S'reduce Stmt->SelectStmt'
p3571
sg433
S'reduce Stmt->SelectStmt'
p3572
sg86
S'reduce Stmt->SelectStmt'
p3573
sg11
S'reduce Stmt->SelectStmt'
p3574
sg13
S'reduce Stmt->SelectStmt'
p3575
sg15
S'reduce Stmt->SelectStmt'
p3576
sg3485
S'reduce Stmt->SelectStmt'
p3577
sg441
S'reduce Stmt->SelectStmt'
p3578
sg443
S'reduce Stmt->SelectStmt'
p3579
sg445
S'reduce Stmt->SelectStmt'
p3580
sg447
S'reduce Stmt->SelectStmt'
p3581
sg17
S'reduce Stmt->SelectStmt'
p3582
sg78
S'reduce Stmt->SelectStmt'
p3583
sg451
S'reduce Stmt->SelectStmt'
p3584
sg439
S'reduce Stmt->SelectStmt'
p3585
sg67
S'reduce Stmt->SelectStmt'
p3586
sg420
S'reduce Stmt->SelectStmt'
p3587
sg60
S'reduce Stmt->SelectStmt'
p3588
sg456
S'reduce Stmt->SelectStmt'
p3589
sa(dp3590
g427
S'reduce SelectStmt->if ( Exp ) Stmt'
p3591
sg429
S'reduce SelectStmt->if ( Exp ) Stmt'
p3592
sg431
S'reduce SelectStmt->if ( Exp ) Stmt'
p3593
sg433
S'reduce SelectStmt->if ( Exp ) Stmt'
p3594
sg86
S'reduce SelectStmt->if ( Exp ) Stmt'
p3595
sg11
S'reduce SelectStmt->if ( Exp ) Stmt'
p3596
sg13
S'reduce SelectStmt->if ( Exp ) Stmt'
p3597
sg15
S'reduce SelectStmt->if ( Exp ) Stmt'
p3598
sg439
S'reduce SelectStmt->if ( Exp ) Stmt'
p3599
sg441
S'reduce SelectStmt->if ( Exp ) Stmt'
p3600
sg443
S'reduce SelectStmt->if ( Exp ) Stmt'
p3601
sg445
S'reduce SelectStmt->if ( Exp ) Stmt'
p3602
sg447
S'reduce SelectStmt->if ( Exp ) Stmt'
p3603
sg17
S'reduce SelectStmt->if ( Exp ) Stmt'
p3604
sg78
S'reduce SelectStmt->if ( Exp ) Stmt'
p3605
sg451
S'reduce SelectStmt->if ( Exp ) Stmt'
p3606
sg67
S'reduce SelectStmt->if ( Exp ) Stmt'
p3607
sS'else'
p3608
S'shift 331'
p3609
sg420
S'reduce SelectStmt->if ( Exp ) Stmt'
p3610
sg60
S'reduce SelectStmt->if ( Exp ) Stmt'
p3611
sg456
S'reduce SelectStmt->if ( Exp ) Stmt'
p3612
sa(dp3613
g427
S'reduce ExpStmt->;'
p3614
sg429
S'reduce ExpStmt->;'
p3615
sg431
S'reduce ExpStmt->;'
p3616
sg433
S'reduce ExpStmt->;'
p3617
sg86
S'reduce ExpStmt->;'
p3618
sg11
S'reduce ExpStmt->;'
p3619
sg13
S'reduce ExpStmt->;'
p3620
sg15
S'reduce ExpStmt->;'
p3621
sg3485
S'reduce ExpStmt->;'
p3622
sg441
S'reduce ExpStmt->;'
p3623
sg443
S'reduce ExpStmt->;'
p3624
sg445
S'reduce ExpStmt->;'
p3625
sg447
S'reduce ExpStmt->;'
p3626
sg17
S'reduce ExpStmt->;'
p3627
sg78
S'reduce ExpStmt->;'
p3628
sg451
S'reduce ExpStmt->;'
p3629
sg439
S'reduce ExpStmt->;'
p3630
sg67
S'reduce ExpStmt->;'
p3631
sg420
S'reduce ExpStmt->;'
p3632
sg60
S'reduce ExpStmt->;'
p3633
sg456
S'reduce ExpStmt->;'
p3634
sa(dp3635
g60
S'shift 332'
p3636
sa(dp3637
g60
S'shift 333'
p3638
sa(dp3639
g84
S'shift 36'
p3640
sg86
S'shift 31'
p3641
sg88
S'shift 34'
p3642
sg78
S'shift 32'
p3643
sg91
S'shift 37'
p3644
sg93
S'shift 35'
p3645
sg60
S'shift 335'
p3646
sg42
S'shift 33'
p3647
sa(dp3648
g78
S'shift 336'
p3649
sa(dp3650
g78
S'shift 337'
p3651
sa(dp3652
g78
S'shift 338'
p3653
sa(dp3654
g91
S'shift 37'
p3655
sg93
S'shift 35'
p3656
sg106
S'shift 54'
p3657
sg84
S'shift 36'
p3658
sg109
S'shift 56'
p3659
sg86
S'shift 31'
p3660
sg2
S'shift 9'
p3661
sg78
S'shift 32'
p3662
sg6
S'shift 8'
p3663
sg115
S'shift 52'
p3664
sg88
S'shift 34'
p3665
sg118
S'shift 57'
p3666
sg120
S'shift 53'
p3667
sg8
S'shift 7'
p3668
sg4
S'shift 10'
p3669
sg67
S'shift 58'
p3670
sg60
S'shift 51'
p3671
sg42
S'shift 33'
p3672
sg127
S'shift 55'
p3673
sa(dp3674
g60
S'shift 340'
p3675
sg64
S'shift 131'
p3676
sa(dp3677
g427
S'reduce IterationStmt->while ( Exp ) Stmt'
p3678
sg429
S'reduce IterationStmt->while ( Exp ) Stmt'
p3679
sg431
S'reduce IterationStmt->while ( Exp ) Stmt'
p3680
sg433
S'reduce IterationStmt->while ( Exp ) Stmt'
p3681
sg86
S'reduce IterationStmt->while ( Exp ) Stmt'
p3682
sg11
S'reduce IterationStmt->while ( Exp ) Stmt'
p3683
sg13
S'reduce IterationStmt->while ( Exp ) Stmt'
p3684
sg15
S'reduce IterationStmt->while ( Exp ) Stmt'
p3685
sg439
S'reduce IterationStmt->while ( Exp ) Stmt'
p3686
sg441
S'reduce IterationStmt->while ( Exp ) Stmt'
p3687
sg443
S'reduce IterationStmt->while ( Exp ) Stmt'
p3688
sg445
S'reduce IterationStmt->while ( Exp ) Stmt'
p3689
sg447
S'reduce IterationStmt->while ( Exp ) Stmt'
p3690
sg17
S'reduce IterationStmt->while ( Exp ) Stmt'
p3691
sg78
S'reduce IterationStmt->while ( Exp ) Stmt'
p3692
sg451
S'reduce IterationStmt->while ( Exp ) Stmt'
p3693
sg67
S'reduce IterationStmt->while ( Exp ) Stmt'
p3694
sg420
S'reduce IterationStmt->while ( Exp ) Stmt'
p3695
sg60
S'reduce IterationStmt->while ( Exp ) Stmt'
p3696
sg456
S'reduce IterationStmt->while ( Exp ) Stmt'
p3697
sa(dp3698
g178
S'reduce PostfixExp->PostfixExp ( ArgExpList )'
p3699
sg180
S'reduce PostfixExp->PostfixExp ( ArgExpList )'
p3700
sg182
S'reduce PostfixExp->PostfixExp ( ArgExpList )'
p3701
sg184
S'reduce PostfixExp->PostfixExp ( ArgExpList )'
p3702
sg78
S'reduce PostfixExp->PostfixExp ( ArgExpList )'
p3703
sg157
S'reduce PostfixExp->PostfixExp ( ArgExpList )'
p3704
sg187
S'reduce PostfixExp->PostfixExp ( ArgExpList )'
p3705
sg161
S'reduce PostfixExp->PostfixExp ( ArgExpList )'
p3706
sg64
S'reduce PostfixExp->PostfixExp ( ArgExpList )'
p3707
sg191
S'reduce PostfixExp->PostfixExp ( ArgExpList )'
p3708
sg246
S'reduce PostfixExp->PostfixExp ( ArgExpList )'
p3709
sg76
S'reduce PostfixExp->PostfixExp ( ArgExpList )'
p3710
sg248
S'reduce PostfixExp->PostfixExp ( ArgExpList )'
p3711
sg60
S'reduce PostfixExp->PostfixExp ( ArgExpList )'
p3712
sg194
S'reduce PostfixExp->PostfixExp ( ArgExpList )'
p3713
sg167
S'reduce PostfixExp->PostfixExp ( ArgExpList )'
p3714
sg169
S'reduce PostfixExp->PostfixExp ( ArgExpList )'
p3715
sa(dp3716
g178
S'reduce PostfixExp->PostfixExp [ AddExp ]'
p3717
sg180
S'reduce PostfixExp->PostfixExp [ AddExp ]'
p3718
sg182
S'reduce PostfixExp->PostfixExp [ AddExp ]'
p3719
sg184
S'reduce PostfixExp->PostfixExp [ AddExp ]'
p3720
sg78
S'reduce PostfixExp->PostfixExp [ AddExp ]'
p3721
sg157
S'reduce PostfixExp->PostfixExp [ AddExp ]'
p3722
sg187
S'reduce PostfixExp->PostfixExp [ AddExp ]'
p3723
sg161
S'reduce PostfixExp->PostfixExp [ AddExp ]'
p3724
sg64
S'reduce PostfixExp->PostfixExp [ AddExp ]'
p3725
sg191
S'reduce PostfixExp->PostfixExp [ AddExp ]'
p3726
sg246
S'reduce PostfixExp->PostfixExp [ AddExp ]'
p3727
sg76
S'reduce PostfixExp->PostfixExp [ AddExp ]'
p3728
sg248
S'reduce PostfixExp->PostfixExp [ AddExp ]'
p3729
sg60
S'reduce PostfixExp->PostfixExp [ AddExp ]'
p3730
sg194
S'reduce PostfixExp->PostfixExp [ AddExp ]'
p3731
sg167
S'reduce PostfixExp->PostfixExp [ AddExp ]'
p3732
sg169
S'reduce PostfixExp->PostfixExp [ AddExp ]'
p3733
sa(dp3734
g138
S'shift 341'
p3735
sg64
S'shift 232'
p3736
sa(dp3737
g178
S'reduce PostfixExp->PostfixExp ( )'
p3738
sg180
S'reduce PostfixExp->PostfixExp ( )'
p3739
sg182
S'reduce PostfixExp->PostfixExp ( )'
p3740
sg138
S'reduce PostfixExp->PostfixExp ( )'
p3741
sg78
S'reduce PostfixExp->PostfixExp ( )'
p3742
sg246
S'reduce PostfixExp->PostfixExp ( )'
p3743
sg187
S'reduce PostfixExp->PostfixExp ( )'
p3744
sg161
S'reduce PostfixExp->PostfixExp ( )'
p3745
sg64
S'reduce PostfixExp->PostfixExp ( )'
p3746
sg191
S'reduce PostfixExp->PostfixExp ( )'
p3747
sg184
S'reduce PostfixExp->PostfixExp ( )'
p3748
sg157
S'reduce PostfixExp->PostfixExp ( )'
p3749
sg248
S'reduce PostfixExp->PostfixExp ( )'
p3750
sg76
S'reduce PostfixExp->PostfixExp ( )'
p3751
sg194
S'reduce PostfixExp->PostfixExp ( )'
p3752
sg167
S'reduce PostfixExp->PostfixExp ( )'
p3753
sg169
S'reduce PostfixExp->PostfixExp ( )'
p3754
sa(dp3755
g668
S'shift 342'
p3756
sg157
S'shift 145'
p3757
sg161
S'shift 146'
p3758
sa(dp3759
g178
S'reduce PrimaryExp->( Exp )'
p3760
sg180
S'reduce PrimaryExp->( Exp )'
p3761
sg182
S'reduce PrimaryExp->( Exp )'
p3762
sg138
S'reduce PrimaryExp->( Exp )'
p3763
sg78
S'reduce PrimaryExp->( Exp )'
p3764
sg246
S'reduce PrimaryExp->( Exp )'
p3765
sg187
S'reduce PrimaryExp->( Exp )'
p3766
sg161
S'reduce PrimaryExp->( Exp )'
p3767
sg64
S'reduce PrimaryExp->( Exp )'
p3768
sg191
S'reduce PrimaryExp->( Exp )'
p3769
sg184
S'reduce PrimaryExp->( Exp )'
p3770
sg157
S'reduce PrimaryExp->( Exp )'
p3771
sg248
S'reduce PrimaryExp->( Exp )'
p3772
sg76
S'reduce PrimaryExp->( Exp )'
p3773
sg194
S'reduce PrimaryExp->( Exp )'
p3774
sg167
S'reduce PrimaryExp->( Exp )'
p3775
sg169
S'reduce PrimaryExp->( Exp )'
p3776
sa(dp3777
g138
S'shift 343'
p3778
sg64
S'shift 232'
p3779
sa(dp3780
g178
S'reduce PostfixExp->PostfixExp ( )'
p3781
sg180
S'reduce PostfixExp->PostfixExp ( )'
p3782
sg182
S'reduce PostfixExp->PostfixExp ( )'
p3783
sg184
S'reduce PostfixExp->PostfixExp ( )'
p3784
sg194
S'reduce PostfixExp->PostfixExp ( )'
p3785
sg157
S'reduce PostfixExp->PostfixExp ( )'
p3786
sg187
S'reduce PostfixExp->PostfixExp ( )'
p3787
sg161
S'reduce PostfixExp->PostfixExp ( )'
p3788
sg64
S'reduce PostfixExp->PostfixExp ( )'
p3789
sg191
S'reduce PostfixExp->PostfixExp ( )'
p3790
sg246
S'reduce PostfixExp->PostfixExp ( )'
p3791
sg78
S'reduce PostfixExp->PostfixExp ( )'
p3792
sg248
S'reduce PostfixExp->PostfixExp ( )'
p3793
sg76
S'reduce PostfixExp->PostfixExp ( )'
p3794
sg420
S'reduce PostfixExp->PostfixExp ( )'
p3795
sg167
S'reduce PostfixExp->PostfixExp ( )'
p3796
sg169
S'reduce PostfixExp->PostfixExp ( )'
p3797
sa(dp3798
g668
S'shift 344'
p3799
sg157
S'shift 145'
p3800
sg161
S'shift 146'
p3801
sa(dp3802
g178
S'reduce PrimaryExp->( Exp )'
p3803
sg180
S'reduce PrimaryExp->( Exp )'
p3804
sg182
S'reduce PrimaryExp->( Exp )'
p3805
sg184
S'reduce PrimaryExp->( Exp )'
p3806
sg194
S'reduce PrimaryExp->( Exp )'
p3807
sg157
S'reduce PrimaryExp->( Exp )'
p3808
sg187
S'reduce PrimaryExp->( Exp )'
p3809
sg161
S'reduce PrimaryExp->( Exp )'
p3810
sg64
S'reduce PrimaryExp->( Exp )'
p3811
sg191
S'reduce PrimaryExp->( Exp )'
p3812
sg246
S'reduce PrimaryExp->( Exp )'
p3813
sg78
S'reduce PrimaryExp->( Exp )'
p3814
sg248
S'reduce PrimaryExp->( Exp )'
p3815
sg76
S'reduce PrimaryExp->( Exp )'
p3816
sg420
S'reduce PrimaryExp->( Exp )'
p3817
sg167
S'reduce PrimaryExp->( Exp )'
p3818
sg169
S'reduce PrimaryExp->( Exp )'
p3819
sa(dp3820
g427
S'reduce ExpStmt->Exp ;'
p3821
sg429
S'reduce ExpStmt->Exp ;'
p3822
sg431
S'reduce ExpStmt->Exp ;'
p3823
sg433
S'reduce ExpStmt->Exp ;'
p3824
sg86
S'reduce ExpStmt->Exp ;'
p3825
sg11
S'reduce ExpStmt->Exp ;'
p3826
sg13
S'reduce ExpStmt->Exp ;'
p3827
sg15
S'reduce ExpStmt->Exp ;'
p3828
sg3485
S'reduce ExpStmt->Exp ;'
p3829
sg441
S'reduce ExpStmt->Exp ;'
p3830
sg443
S'reduce ExpStmt->Exp ;'
p3831
sg445
S'reduce ExpStmt->Exp ;'
p3832
sg447
S'reduce ExpStmt->Exp ;'
p3833
sg17
S'reduce ExpStmt->Exp ;'
p3834
sg78
S'reduce ExpStmt->Exp ;'
p3835
sg451
S'reduce ExpStmt->Exp ;'
p3836
sg439
S'reduce ExpStmt->Exp ;'
p3837
sg67
S'reduce ExpStmt->Exp ;'
p3838
sg420
S'reduce ExpStmt->Exp ;'
p3839
sg60
S'reduce ExpStmt->Exp ;'
p3840
sg456
S'reduce ExpStmt->Exp ;'
p3841
sa(dp3842
g91
S'shift 37'
p3843
sg106
S'shift 54'
p3844
sg84
S'shift 36'
p3845
sg109
S'shift 56'
p3846
sg86
S'shift 31'
p3847
sg88
S'shift 34'
p3848
sg78
S'shift 32'
p3849
sg115
S'shift 52'
p3850
sg118
S'shift 57'
p3851
sg120
S'shift 53'
p3852
sg93
S'shift 35'
p3853
sg67
S'shift 58'
p3854
sg60
S'shift 51'
p3855
sg42
S'shift 33'
p3856
sg127
S'shift 55'
p3857
sa(dp3858
g427
S'reduce JmpStmt->break ;'
p3859
sg429
S'reduce JmpStmt->break ;'
p3860
sg431
S'reduce JmpStmt->break ;'
p3861
sg433
S'reduce JmpStmt->break ;'
p3862
sg86
S'reduce JmpStmt->break ;'
p3863
sg11
S'reduce JmpStmt->break ;'
p3864
sg13
S'reduce JmpStmt->break ;'
p3865
sg15
S'reduce JmpStmt->break ;'
p3866
sg3485
S'reduce JmpStmt->break ;'
p3867
sg441
S'reduce JmpStmt->break ;'
p3868
sg443
S'reduce JmpStmt->break ;'
p3869
sg445
S'reduce JmpStmt->break ;'
p3870
sg447
S'reduce JmpStmt->break ;'
p3871
sg17
S'reduce JmpStmt->break ;'
p3872
sg78
S'reduce JmpStmt->break ;'
p3873
sg451
S'reduce JmpStmt->break ;'
p3874
sg439
S'reduce JmpStmt->break ;'
p3875
sg67
S'reduce JmpStmt->break ;'
p3876
sg420
S'reduce JmpStmt->break ;'
p3877
sg60
S'reduce JmpStmt->break ;'
p3878
sg456
S'reduce JmpStmt->break ;'
p3879
sa(dp3880
g427
S'reduce JmpStmt->continue ;'
p3881
sg429
S'reduce JmpStmt->continue ;'
p3882
sg431
S'reduce JmpStmt->continue ;'
p3883
sg433
S'reduce JmpStmt->continue ;'
p3884
sg86
S'reduce JmpStmt->continue ;'
p3885
sg11
S'reduce JmpStmt->continue ;'
p3886
sg13
S'reduce JmpStmt->continue ;'
p3887
sg15
S'reduce JmpStmt->continue ;'
p3888
sg3485
S'reduce JmpStmt->continue ;'
p3889
sg441
S'reduce JmpStmt->continue ;'
p3890
sg443
S'reduce JmpStmt->continue ;'
p3891
sg445
S'reduce JmpStmt->continue ;'
p3892
sg447
S'reduce JmpStmt->continue ;'
p3893
sg17
S'reduce JmpStmt->continue ;'
p3894
sg78
S'reduce JmpStmt->continue ;'
p3895
sg451
S'reduce JmpStmt->continue ;'
p3896
sg439
S'reduce JmpStmt->continue ;'
p3897
sg67
S'reduce JmpStmt->continue ;'
p3898
sg420
S'reduce JmpStmt->continue ;'
p3899
sg60
S'reduce JmpStmt->continue ;'
p3900
sg456
S'reduce JmpStmt->continue ;'
p3901
sa(dp3902
g60
S'shift 346'
p3903
sg64
S'shift 131'
p3904
sa(dp3905
g427
S'reduce JmpStmt->return ;'
p3906
sg429
S'reduce JmpStmt->return ;'
p3907
sg431
S'reduce JmpStmt->return ;'
p3908
sg433
S'reduce JmpStmt->return ;'
p3909
sg86
S'reduce JmpStmt->return ;'
p3910
sg11
S'reduce JmpStmt->return ;'
p3911
sg13
S'reduce JmpStmt->return ;'
p3912
sg15
S'reduce JmpStmt->return ;'
p3913
sg3485
S'reduce JmpStmt->return ;'
p3914
sg441
S'reduce JmpStmt->return ;'
p3915
sg443
S'reduce JmpStmt->return ;'
p3916
sg445
S'reduce JmpStmt->return ;'
p3917
sg447
S'reduce JmpStmt->return ;'
p3918
sg17
S'reduce JmpStmt->return ;'
p3919
sg78
S'reduce JmpStmt->return ;'
p3920
sg451
S'reduce JmpStmt->return ;'
p3921
sg439
S'reduce JmpStmt->return ;'
p3922
sg67
S'reduce JmpStmt->return ;'
p3923
sg420
S'reduce JmpStmt->return ;'
p3924
sg60
S'reduce JmpStmt->return ;'
p3925
sg456
S'reduce JmpStmt->return ;'
p3926
sa(dp3927
g84
S'shift 111'
p3928
sg86
S'shift 106'
p3929
sg88
S'shift 109'
p3930
sg78
S'shift 107'
p3931
sg91
S'shift 112'
p3932
sg93
S'shift 110'
p3933
sg42
S'shift 108'
p3934
sa(dp3935
g84
S'shift 36'
p3936
sg86
S'shift 31'
p3937
sg88
S'shift 34'
p3938
sg78
S'shift 32'
p3939
sg91
S'shift 37'
p3940
sg93
S'shift 35'
p3941
sg42
S'shift 33'
p3942
sa(dp3943
g84
S'shift 111'
p3944
sg86
S'shift 106'
p3945
sg88
S'shift 109'
p3946
sg78
S'shift 107'
p3947
sg91
S'shift 112'
p3948
sg93
S'shift 110'
p3949
sg42
S'shift 108'
p3950
sa(dp3951
g420
S'shift 350'
p3952
sa(dp3953
g84
S'shift 111'
p3954
sg86
S'shift 106'
p3955
sg138
S'shift 352'
p3956
sg78
S'shift 107'
p3957
sg91
S'shift 112'
p3958
sg88
S'shift 109'
p3959
sg93
S'shift 110'
p3960
sg42
S'shift 108'
p3961
sa(dp3962
g178
S'reduce PostfixExp->PostfixExp ( ArgExpList )'
p3963
sg180
S'reduce PostfixExp->PostfixExp ( ArgExpList )'
p3964
sg182
S'reduce PostfixExp->PostfixExp ( ArgExpList )'
p3965
sg138
S'reduce PostfixExp->PostfixExp ( ArgExpList )'
p3966
sg78
S'reduce PostfixExp->PostfixExp ( ArgExpList )'
p3967
sg246
S'reduce PostfixExp->PostfixExp ( ArgExpList )'
p3968
sg187
S'reduce PostfixExp->PostfixExp ( ArgExpList )'
p3969
sg161
S'reduce PostfixExp->PostfixExp ( ArgExpList )'
p3970
sg64
S'reduce PostfixExp->PostfixExp ( ArgExpList )'
p3971
sg191
S'reduce PostfixExp->PostfixExp ( ArgExpList )'
p3972
sg184
S'reduce PostfixExp->PostfixExp ( ArgExpList )'
p3973
sg157
S'reduce PostfixExp->PostfixExp ( ArgExpList )'
p3974
sg248
S'reduce PostfixExp->PostfixExp ( ArgExpList )'
p3975
sg76
S'reduce PostfixExp->PostfixExp ( ArgExpList )'
p3976
sg194
S'reduce PostfixExp->PostfixExp ( ArgExpList )'
p3977
sg167
S'reduce PostfixExp->PostfixExp ( ArgExpList )'
p3978
sg169
S'reduce PostfixExp->PostfixExp ( ArgExpList )'
p3979
sa(dp3980
g178
S'reduce PostfixExp->PostfixExp [ AddExp ]'
p3981
sg180
S'reduce PostfixExp->PostfixExp [ AddExp ]'
p3982
sg182
S'reduce PostfixExp->PostfixExp [ AddExp ]'
p3983
sg138
S'reduce PostfixExp->PostfixExp [ AddExp ]'
p3984
sg78
S'reduce PostfixExp->PostfixExp [ AddExp ]'
p3985
sg246
S'reduce PostfixExp->PostfixExp [ AddExp ]'
p3986
sg187
S'reduce PostfixExp->PostfixExp [ AddExp ]'
p3987
sg161
S'reduce PostfixExp->PostfixExp [ AddExp ]'
p3988
sg64
S'reduce PostfixExp->PostfixExp [ AddExp ]'
p3989
sg191
S'reduce PostfixExp->PostfixExp [ AddExp ]'
p3990
sg184
S'reduce PostfixExp->PostfixExp [ AddExp ]'
p3991
sg157
S'reduce PostfixExp->PostfixExp [ AddExp ]'
p3992
sg248
S'reduce PostfixExp->PostfixExp [ AddExp ]'
p3993
sg76
S'reduce PostfixExp->PostfixExp [ AddExp ]'
p3994
sg194
S'reduce PostfixExp->PostfixExp [ AddExp ]'
p3995
sg167
S'reduce PostfixExp->PostfixExp [ AddExp ]'
p3996
sg169
S'reduce PostfixExp->PostfixExp [ AddExp ]'
p3997
sa(dp3998
g178
S'reduce PostfixExp->PostfixExp ( ArgExpList )'
p3999
sg180
S'reduce PostfixExp->PostfixExp ( ArgExpList )'
p4000
sg182
S'reduce PostfixExp->PostfixExp ( ArgExpList )'
p4001
sg184
S'reduce PostfixExp->PostfixExp ( ArgExpList )'
p4002
sg194
S'reduce PostfixExp->PostfixExp ( ArgExpList )'
p4003
sg157
S'reduce PostfixExp->PostfixExp ( ArgExpList )'
p4004
sg187
S'reduce PostfixExp->PostfixExp ( ArgExpList )'
p4005
sg161
S'reduce PostfixExp->PostfixExp ( ArgExpList )'
p4006
sg64
S'reduce PostfixExp->PostfixExp ( ArgExpList )'
p4007
sg191
S'reduce PostfixExp->PostfixExp ( ArgExpList )'
p4008
sg246
S'reduce PostfixExp->PostfixExp ( ArgExpList )'
p4009
sg78
S'reduce PostfixExp->PostfixExp ( ArgExpList )'
p4010
sg248
S'reduce PostfixExp->PostfixExp ( ArgExpList )'
p4011
sg76
S'reduce PostfixExp->PostfixExp ( ArgExpList )'
p4012
sg420
S'reduce PostfixExp->PostfixExp ( ArgExpList )'
p4013
sg167
S'reduce PostfixExp->PostfixExp ( ArgExpList )'
p4014
sg169
S'reduce PostfixExp->PostfixExp ( ArgExpList )'
p4015
sa(dp4016
g178
S'reduce PostfixExp->PostfixExp [ AddExp ]'
p4017
sg180
S'reduce PostfixExp->PostfixExp [ AddExp ]'
p4018
sg182
S'reduce PostfixExp->PostfixExp [ AddExp ]'
p4019
sg184
S'reduce PostfixExp->PostfixExp [ AddExp ]'
p4020
sg194
S'reduce PostfixExp->PostfixExp [ AddExp ]'
p4021
sg157
S'reduce PostfixExp->PostfixExp [ AddExp ]'
p4022
sg187
S'reduce PostfixExp->PostfixExp [ AddExp ]'
p4023
sg161
S'reduce PostfixExp->PostfixExp [ AddExp ]'
p4024
sg64
S'reduce PostfixExp->PostfixExp [ AddExp ]'
p4025
sg191
S'reduce PostfixExp->PostfixExp [ AddExp ]'
p4026
sg246
S'reduce PostfixExp->PostfixExp [ AddExp ]'
p4027
sg78
S'reduce PostfixExp->PostfixExp [ AddExp ]'
p4028
sg248
S'reduce PostfixExp->PostfixExp [ AddExp ]'
p4029
sg76
S'reduce PostfixExp->PostfixExp [ AddExp ]'
p4030
sg420
S'reduce PostfixExp->PostfixExp [ AddExp ]'
p4031
sg167
S'reduce PostfixExp->PostfixExp [ AddExp ]'
p4032
sg169
S'reduce PostfixExp->PostfixExp [ AddExp ]'
p4033
sa(dp4034
g427
S'reduce SelectStmt->if ( Exp ) Stmt else Stmt'
p4035
sg429
S'reduce SelectStmt->if ( Exp ) Stmt else Stmt'
p4036
sg431
S'reduce SelectStmt->if ( Exp ) Stmt else Stmt'
p4037
sg433
S'reduce SelectStmt->if ( Exp ) Stmt else Stmt'
p4038
sg86
S'reduce SelectStmt->if ( Exp ) Stmt else Stmt'
p4039
sg11
S'reduce SelectStmt->if ( Exp ) Stmt else Stmt'
p4040
sg13
S'reduce SelectStmt->if ( Exp ) Stmt else Stmt'
p4041
sg15
S'reduce SelectStmt->if ( Exp ) Stmt else Stmt'
p4042
sg439
S'reduce SelectStmt->if ( Exp ) Stmt else Stmt'
p4043
sg441
S'reduce SelectStmt->if ( Exp ) Stmt else Stmt'
p4044
sg443
S'reduce SelectStmt->if ( Exp ) Stmt else Stmt'
p4045
sg445
S'reduce SelectStmt->if ( Exp ) Stmt else Stmt'
p4046
sg447
S'reduce SelectStmt->if ( Exp ) Stmt else Stmt'
p4047
sg17
S'reduce SelectStmt->if ( Exp ) Stmt else Stmt'
p4048
sg78
S'reduce SelectStmt->if ( Exp ) Stmt else Stmt'
p4049
sg451
S'reduce SelectStmt->if ( Exp ) Stmt else Stmt'
p4050
sg67
S'reduce SelectStmt->if ( Exp ) Stmt else Stmt'
p4051
sg420
S'reduce SelectStmt->if ( Exp ) Stmt else Stmt'
p4052
sg60
S'reduce SelectStmt->if ( Exp ) Stmt else Stmt'
p4053
sg456
S'reduce SelectStmt->if ( Exp ) Stmt else Stmt'
p4054
sa(dp4055
g427
S'reduce JmpStmt->return Exp ;'
p4056
sg429
S'reduce JmpStmt->return Exp ;'
p4057
sg431
S'reduce JmpStmt->return Exp ;'
p4058
sg433
S'reduce JmpStmt->return Exp ;'
p4059
sg86
S'reduce JmpStmt->return Exp ;'
p4060
sg11
S'reduce JmpStmt->return Exp ;'
p4061
sg13
S'reduce JmpStmt->return Exp ;'
p4062
sg15
S'reduce JmpStmt->return Exp ;'
p4063
sg3485
S'reduce JmpStmt->return Exp ;'
p4064
sg441
S'reduce JmpStmt->return Exp ;'
p4065
sg443
S'reduce JmpStmt->return Exp ;'
p4066
sg445
S'reduce JmpStmt->return Exp ;'
p4067
sg447
S'reduce JmpStmt->return Exp ;'
p4068
sg17
S'reduce JmpStmt->return Exp ;'
p4069
sg78
S'reduce JmpStmt->return Exp ;'
p4070
sg451
S'reduce JmpStmt->return Exp ;'
p4071
sg439
S'reduce JmpStmt->return Exp ;'
p4072
sg67
S'reduce JmpStmt->return Exp ;'
p4073
sg420
S'reduce JmpStmt->return Exp ;'
p4074
sg60
S'reduce JmpStmt->return Exp ;'
p4075
sg456
S'reduce JmpStmt->return Exp ;'
p4076
sa(dp4077
g138
S'shift 353'
p4078
sg64
S'shift 181'
p4079
sa(dp4080
g60
S'shift 354'
p4081
sg64
S'shift 131'
p4082
sa(dp4083
g138
S'shift 355'
p4084
sg64
S'shift 181'
p4085
sa(dp4086
g427
S'reduce CompoundStmt->{ BlockItemList }'
p4087
sg429
S'reduce CompoundStmt->{ BlockItemList }'
p4088
sg431
S'reduce CompoundStmt->{ BlockItemList }'
p4089
sg433
S'reduce CompoundStmt->{ BlockItemList }'
p4090
sg86
S'reduce CompoundStmt->{ BlockItemList }'
p4091
sg11
S'reduce CompoundStmt->{ BlockItemList }'
p4092
sg13
S'reduce CompoundStmt->{ BlockItemList }'
p4093
sg15
S'reduce CompoundStmt->{ BlockItemList }'
p4094
sg3485
S'reduce CompoundStmt->{ BlockItemList }'
p4095
sg441
S'reduce CompoundStmt->{ BlockItemList }'
p4096
sg443
S'reduce CompoundStmt->{ BlockItemList }'
p4097
sg445
S'reduce CompoundStmt->{ BlockItemList }'
p4098
sg447
S'reduce CompoundStmt->{ BlockItemList }'
p4099
sg17
S'reduce CompoundStmt->{ BlockItemList }'
p4100
sg78
S'reduce CompoundStmt->{ BlockItemList }'
p4101
sg451
S'reduce CompoundStmt->{ BlockItemList }'
p4102
sg439
S'reduce CompoundStmt->{ BlockItemList }'
p4103
sg67
S'reduce CompoundStmt->{ BlockItemList }'
p4104
sg420
S'reduce CompoundStmt->{ BlockItemList }'
p4105
sg60
S'reduce CompoundStmt->{ BlockItemList }'
p4106
sg456
S'reduce CompoundStmt->{ BlockItemList }'
p4107
sa(dp4108
g138
S'shift 356'
p4109
sg64
S'shift 181'
p4110
sa(dp4111
g91
S'shift 37'
p4112
sg106
S'shift 54'
p4113
sg84
S'shift 36'
p4114
sg109
S'shift 56'
p4115
sg86
S'shift 31'
p4116
sg88
S'shift 34'
p4117
sg78
S'shift 32'
p4118
sg115
S'shift 52'
p4119
sg118
S'shift 57'
p4120
sg120
S'shift 53'
p4121
sg93
S'shift 35'
p4122
sg67
S'shift 58'
p4123
sg60
S'shift 51'
p4124
sg42
S'shift 33'
p4125
sg127
S'shift 55'
p4126
sa(dp4127
g91
S'shift 37'
p4128
sg106
S'shift 313'
p4129
sg84
S'shift 36'
p4130
sg109
S'shift 315'
p4131
sg86
S'shift 31'
p4132
sg88
S'shift 34'
p4133
sg78
S'shift 32'
p4134
sg115
S'shift 311'
p4135
sg118
S'shift 316'
p4136
sg120
S'shift 312'
p4137
sg93
S'shift 35'
p4138
sg67
S'shift 317'
p4139
sg60
S'shift 310'
p4140
sg42
S'shift 33'
p4141
sg127
S'shift 314'
p4142
sa(dp4143
g84
S'shift 36'
p4144
sg86
S'shift 31'
p4145
sg88
S'shift 34'
p4146
sg78
S'shift 32'
p4147
sg91
S'shift 37'
p4148
sg93
S'shift 35'
p4149
sg42
S'shift 33'
p4150
sa(dp4151
g91
S'shift 37'
p4152
sg106
S'shift 313'
p4153
sg84
S'shift 36'
p4154
sg109
S'shift 315'
p4155
sg86
S'shift 31'
p4156
sg88
S'shift 34'
p4157
sg78
S'shift 32'
p4158
sg115
S'shift 311'
p4159
sg118
S'shift 316'
p4160
sg120
S'shift 312'
p4161
sg93
S'shift 35'
p4162
sg67
S'shift 317'
p4163
sg60
S'shift 310'
p4164
sg42
S'shift 33'
p4165
sg127
S'shift 314'
p4166
sa(dp4167
g91
S'shift 37'
p4168
sg106
S'shift 54'
p4169
sg84
S'shift 36'
p4170
sg109
S'shift 56'
p4171
sg86
S'shift 31'
p4172
sg88
S'shift 34'
p4173
sg78
S'shift 32'
p4174
sg115
S'shift 52'
p4175
sg118
S'shift 57'
p4176
sg120
S'shift 53'
p4177
sg93
S'shift 35'
p4178
sg67
S'shift 58'
p4179
sg60
S'shift 51'
p4180
sg42
S'shift 33'
p4181
sg127
S'shift 55'
p4182
sa(dp4183
g427
S'reduce IterationStmt->for ( Exp ; Exp ; ) Stmt'
p4184
sg429
S'reduce IterationStmt->for ( Exp ; Exp ; ) Stmt'
p4185
sg431
S'reduce IterationStmt->for ( Exp ; Exp ; ) Stmt'
p4186
sg433
S'reduce IterationStmt->for ( Exp ; Exp ; ) Stmt'
p4187
sg86
S'reduce IterationStmt->for ( Exp ; Exp ; ) Stmt'
p4188
sg11
S'reduce IterationStmt->for ( Exp ; Exp ; ) Stmt'
p4189
sg13
S'reduce IterationStmt->for ( Exp ; Exp ; ) Stmt'
p4190
sg15
S'reduce IterationStmt->for ( Exp ; Exp ; ) Stmt'
p4191
sg439
S'reduce IterationStmt->for ( Exp ; Exp ; ) Stmt'
p4192
sg441
S'reduce IterationStmt->for ( Exp ; Exp ; ) Stmt'
p4193
sg443
S'reduce IterationStmt->for ( Exp ; Exp ; ) Stmt'
p4194
sg445
S'reduce IterationStmt->for ( Exp ; Exp ; ) Stmt'
p4195
sg447
S'reduce IterationStmt->for ( Exp ; Exp ; ) Stmt'
p4196
sg17
S'reduce IterationStmt->for ( Exp ; Exp ; ) Stmt'
p4197
sg78
S'reduce IterationStmt->for ( Exp ; Exp ; ) Stmt'
p4198
sg451
S'reduce IterationStmt->for ( Exp ; Exp ; ) Stmt'
p4199
sg67
S'reduce IterationStmt->for ( Exp ; Exp ; ) Stmt'
p4200
sg420
S'reduce IterationStmt->for ( Exp ; Exp ; ) Stmt'
p4201
sg60
S'reduce IterationStmt->for ( Exp ; Exp ; ) Stmt'
p4202
sg456
S'reduce IterationStmt->for ( Exp ; Exp ; ) Stmt'
p4203
sa(dp4204
g427
S'reduce SelectStmt->if ( Exp ) Stmt'
p4205
sg429
S'reduce SelectStmt->if ( Exp ) Stmt'
p4206
sg431
S'reduce SelectStmt->if ( Exp ) Stmt'
p4207
sg433
S'reduce SelectStmt->if ( Exp ) Stmt'
p4208
sg86
S'reduce SelectStmt->if ( Exp ) Stmt'
p4209
sg11
S'reduce SelectStmt->if ( Exp ) Stmt'
p4210
sg13
S'reduce SelectStmt->if ( Exp ) Stmt'
p4211
sg15
S'reduce SelectStmt->if ( Exp ) Stmt'
p4212
sg3485
S'reduce SelectStmt->if ( Exp ) Stmt'
p4213
sg441
S'reduce SelectStmt->if ( Exp ) Stmt'
p4214
sg443
S'reduce SelectStmt->if ( Exp ) Stmt'
p4215
sg445
S'reduce SelectStmt->if ( Exp ) Stmt'
p4216
sg447
S'reduce SelectStmt->if ( Exp ) Stmt'
p4217
sg17
S'reduce SelectStmt->if ( Exp ) Stmt'
p4218
sg78
S'reduce SelectStmt->if ( Exp ) Stmt'
p4219
sg451
S'reduce SelectStmt->if ( Exp ) Stmt'
p4220
sg439
S'reduce SelectStmt->if ( Exp ) Stmt'
p4221
sg67
S'reduce SelectStmt->if ( Exp ) Stmt'
p4222
sg420
S'reduce SelectStmt->if ( Exp ) Stmt'
p4223
sg60
S'reduce SelectStmt->if ( Exp ) Stmt'
p4224
sg456
S'reduce SelectStmt->if ( Exp ) Stmt'
p4225
sa(dp4226
g60
S'shift 363'
p4227
sg64
S'shift 131'
p4228
sa(dp4229
g427
S'reduce IterationStmt->while ( Exp ) Stmt'
p4230
sg429
S'reduce IterationStmt->while ( Exp ) Stmt'
p4231
sg431
S'reduce IterationStmt->while ( Exp ) Stmt'
p4232
sg433
S'reduce IterationStmt->while ( Exp ) Stmt'
p4233
sg86
S'reduce IterationStmt->while ( Exp ) Stmt'
p4234
sg11
S'reduce IterationStmt->while ( Exp ) Stmt'
p4235
sg13
S'reduce IterationStmt->while ( Exp ) Stmt'
p4236
sg15
S'reduce IterationStmt->while ( Exp ) Stmt'
p4237
sg3485
S'reduce IterationStmt->while ( Exp ) Stmt'
p4238
sg441
S'reduce IterationStmt->while ( Exp ) Stmt'
p4239
sg443
S'reduce IterationStmt->while ( Exp ) Stmt'
p4240
sg445
S'reduce IterationStmt->while ( Exp ) Stmt'
p4241
sg447
S'reduce IterationStmt->while ( Exp ) Stmt'
p4242
sg17
S'reduce IterationStmt->while ( Exp ) Stmt'
p4243
sg78
S'reduce IterationStmt->while ( Exp ) Stmt'
p4244
sg451
S'reduce IterationStmt->while ( Exp ) Stmt'
p4245
sg439
S'reduce IterationStmt->while ( Exp ) Stmt'
p4246
sg67
S'reduce IterationStmt->while ( Exp ) Stmt'
p4247
sg420
S'reduce IterationStmt->while ( Exp ) Stmt'
p4248
sg60
S'reduce IterationStmt->while ( Exp ) Stmt'
p4249
sg456
S'reduce IterationStmt->while ( Exp ) Stmt'
p4250
sa(dp4251
g427
S'reduce IterationStmt->for ( Exp ; Exp ; Exp ) Stmt'
p4252
sg429
S'reduce IterationStmt->for ( Exp ; Exp ; Exp ) Stmt'
p4253
sg431
S'reduce IterationStmt->for ( Exp ; Exp ; Exp ) Stmt'
p4254
sg433
S'reduce IterationStmt->for ( Exp ; Exp ; Exp ) Stmt'
p4255
sg86
S'reduce IterationStmt->for ( Exp ; Exp ; Exp ) Stmt'
p4256
sg11
S'reduce IterationStmt->for ( Exp ; Exp ; Exp ) Stmt'
p4257
sg13
S'reduce IterationStmt->for ( Exp ; Exp ; Exp ) Stmt'
p4258
sg15
S'reduce IterationStmt->for ( Exp ; Exp ; Exp ) Stmt'
p4259
sg439
S'reduce IterationStmt->for ( Exp ; Exp ; Exp ) Stmt'
p4260
sg441
S'reduce IterationStmt->for ( Exp ; Exp ; Exp ) Stmt'
p4261
sg443
S'reduce IterationStmt->for ( Exp ; Exp ; Exp ) Stmt'
p4262
sg445
S'reduce IterationStmt->for ( Exp ; Exp ; Exp ) Stmt'
p4263
sg447
S'reduce IterationStmt->for ( Exp ; Exp ; Exp ) Stmt'
p4264
sg17
S'reduce IterationStmt->for ( Exp ; Exp ; Exp ) Stmt'
p4265
sg78
S'reduce IterationStmt->for ( Exp ; Exp ; Exp ) Stmt'
p4266
sg451
S'reduce IterationStmt->for ( Exp ; Exp ; Exp ) Stmt'
p4267
sg67
S'reduce IterationStmt->for ( Exp ; Exp ; Exp ) Stmt'
p4268
sg420
S'reduce IterationStmt->for ( Exp ; Exp ; Exp ) Stmt'
p4269
sg60
S'reduce IterationStmt->for ( Exp ; Exp ; Exp ) Stmt'
p4270
sg456
S'reduce IterationStmt->for ( Exp ; Exp ; Exp ) Stmt'
p4271
sa(dp4272
g91
S'shift 37'
p4273
sg106
S'shift 313'
p4274
sg84
S'shift 36'
p4275
sg109
S'shift 315'
p4276
sg86
S'shift 31'
p4277
sg88
S'shift 34'
p4278
sg78
S'shift 32'
p4279
sg115
S'shift 311'
p4280
sg118
S'shift 316'
p4281
sg120
S'shift 312'
p4282
sg93
S'shift 35'
p4283
sg67
S'shift 317'
p4284
sg60
S'shift 310'
p4285
sg42
S'shift 33'
p4286
sg127
S'shift 314'
p4287
sa(dp4288
g84
S'shift 111'
p4289
sg86
S'shift 106'
p4290
sg138
S'shift 366'
p4291
sg78
S'shift 107'
p4292
sg91
S'shift 112'
p4293
sg88
S'shift 109'
p4294
sg93
S'shift 110'
p4295
sg42
S'shift 108'
p4296
sa(dp4297
g427
S'reduce SelectStmt->if ( Exp ) Stmt else Stmt'
p4298
sg429
S'reduce SelectStmt->if ( Exp ) Stmt else Stmt'
p4299
sg431
S'reduce SelectStmt->if ( Exp ) Stmt else Stmt'
p4300
sg433
S'reduce SelectStmt->if ( Exp ) Stmt else Stmt'
p4301
sg86
S'reduce SelectStmt->if ( Exp ) Stmt else Stmt'
p4302
sg11
S'reduce SelectStmt->if ( Exp ) Stmt else Stmt'
p4303
sg13
S'reduce SelectStmt->if ( Exp ) Stmt else Stmt'
p4304
sg15
S'reduce SelectStmt->if ( Exp ) Stmt else Stmt'
p4305
sg3485
S'reduce SelectStmt->if ( Exp ) Stmt else Stmt'
p4306
sg441
S'reduce SelectStmt->if ( Exp ) Stmt else Stmt'
p4307
sg443
S'reduce SelectStmt->if ( Exp ) Stmt else Stmt'
p4308
sg445
S'reduce SelectStmt->if ( Exp ) Stmt else Stmt'
p4309
sg447
S'reduce SelectStmt->if ( Exp ) Stmt else Stmt'
p4310
sg17
S'reduce SelectStmt->if ( Exp ) Stmt else Stmt'
p4311
sg78
S'reduce SelectStmt->if ( Exp ) Stmt else Stmt'
p4312
sg451
S'reduce SelectStmt->if ( Exp ) Stmt else Stmt'
p4313
sg439
S'reduce SelectStmt->if ( Exp ) Stmt else Stmt'
p4314
sg67
S'reduce SelectStmt->if ( Exp ) Stmt else Stmt'
p4315
sg420
S'reduce SelectStmt->if ( Exp ) Stmt else Stmt'
p4316
sg60
S'reduce SelectStmt->if ( Exp ) Stmt else Stmt'
p4317
sg456
S'reduce SelectStmt->if ( Exp ) Stmt else Stmt'
p4318
sa(dp4319
g138
S'shift 367'
p4320
sg64
S'shift 181'
p4321
sa(dp4322
g91
S'shift 37'
p4323
sg106
S'shift 313'
p4324
sg84
S'shift 36'
p4325
sg109
S'shift 315'
p4326
sg86
S'shift 31'
p4327
sg88
S'shift 34'
p4328
sg78
S'shift 32'
p4329
sg115
S'shift 311'
p4330
sg118
S'shift 316'
p4331
sg120
S'shift 312'
p4332
sg93
S'shift 35'
p4333
sg67
S'shift 317'
p4334
sg60
S'shift 310'
p4335
sg42
S'shift 33'
p4336
sg127
S'shift 314'
p4337
sa(dp4338
g91
S'shift 37'
p4339
sg106
S'shift 313'
p4340
sg84
S'shift 36'
p4341
sg109
S'shift 315'
p4342
sg86
S'shift 31'
p4343
sg88
S'shift 34'
p4344
sg78
S'shift 32'
p4345
sg115
S'shift 311'
p4346
sg118
S'shift 316'
p4347
sg120
S'shift 312'
p4348
sg93
S'shift 35'
p4349
sg67
S'shift 317'
p4350
sg60
S'shift 310'
p4351
sg42
S'shift 33'
p4352
sg127
S'shift 314'
p4353
sa(dp4354
g427
S'reduce IterationStmt->for ( Exp ; Exp ; ) Stmt'
p4355
sg429
S'reduce IterationStmt->for ( Exp ; Exp ; ) Stmt'
p4356
sg431
S'reduce IterationStmt->for ( Exp ; Exp ; ) Stmt'
p4357
sg433
S'reduce IterationStmt->for ( Exp ; Exp ; ) Stmt'
p4358
sg86
S'reduce IterationStmt->for ( Exp ; Exp ; ) Stmt'
p4359
sg11
S'reduce IterationStmt->for ( Exp ; Exp ; ) Stmt'
p4360
sg13
S'reduce IterationStmt->for ( Exp ; Exp ; ) Stmt'
p4361
sg15
S'reduce IterationStmt->for ( Exp ; Exp ; ) Stmt'
p4362
sg3485
S'reduce IterationStmt->for ( Exp ; Exp ; ) Stmt'
p4363
sg441
S'reduce IterationStmt->for ( Exp ; Exp ; ) Stmt'
p4364
sg443
S'reduce IterationStmt->for ( Exp ; Exp ; ) Stmt'
p4365
sg445
S'reduce IterationStmt->for ( Exp ; Exp ; ) Stmt'
p4366
sg447
S'reduce IterationStmt->for ( Exp ; Exp ; ) Stmt'
p4367
sg17
S'reduce IterationStmt->for ( Exp ; Exp ; ) Stmt'
p4368
sg78
S'reduce IterationStmt->for ( Exp ; Exp ; ) Stmt'
p4369
sg451
S'reduce IterationStmt->for ( Exp ; Exp ; ) Stmt'
p4370
sg439
S'reduce IterationStmt->for ( Exp ; Exp ; ) Stmt'
p4371
sg67
S'reduce IterationStmt->for ( Exp ; Exp ; ) Stmt'
p4372
sg420
S'reduce IterationStmt->for ( Exp ; Exp ; ) Stmt'
p4373
sg60
S'reduce IterationStmt->for ( Exp ; Exp ; ) Stmt'
p4374
sg456
S'reduce IterationStmt->for ( Exp ; Exp ; ) Stmt'
p4375
sa(dp4376
g427
S'reduce IterationStmt->for ( Exp ; Exp ; Exp ) Stmt'
p4377
sg429
S'reduce IterationStmt->for ( Exp ; Exp ; Exp ) Stmt'
p4378
sg431
S'reduce IterationStmt->for ( Exp ; Exp ; Exp ) Stmt'
p4379
sg433
S'reduce IterationStmt->for ( Exp ; Exp ; Exp ) Stmt'
p4380
sg86
S'reduce IterationStmt->for ( Exp ; Exp ; Exp ) Stmt'
p4381
sg11
S'reduce IterationStmt->for ( Exp ; Exp ; Exp ) Stmt'
p4382
sg13
S'reduce IterationStmt->for ( Exp ; Exp ; Exp ) Stmt'
p4383
sg15
S'reduce IterationStmt->for ( Exp ; Exp ; Exp ) Stmt'
p4384
sg3485
S'reduce IterationStmt->for ( Exp ; Exp ; Exp ) Stmt'
p4385
sg441
S'reduce IterationStmt->for ( Exp ; Exp ; Exp ) Stmt'
p4386
sg443
S'reduce IterationStmt->for ( Exp ; Exp ; Exp ) Stmt'
p4387
sg445
S'reduce IterationStmt->for ( Exp ; Exp ; Exp ) Stmt'
p4388
sg447
S'reduce IterationStmt->for ( Exp ; Exp ; Exp ) Stmt'
p4389
sg17
S'reduce IterationStmt->for ( Exp ; Exp ; Exp ) Stmt'
p4390
sg78
S'reduce IterationStmt->for ( Exp ; Exp ; Exp ) Stmt'
p4391
sg451
S'reduce IterationStmt->for ( Exp ; Exp ; Exp ) Stmt'
p4392
sg439
S'reduce IterationStmt->for ( Exp ; Exp ; Exp ) Stmt'
p4393
sg67
S'reduce IterationStmt->for ( Exp ; Exp ; Exp ) Stmt'
p4394
sg420
S'reduce IterationStmt->for ( Exp ; Exp ; Exp ) Stmt'
p4395
sg60
S'reduce IterationStmt->for ( Exp ; Exp ; Exp ) Stmt'
p4396
sg456
S'reduce IterationStmt->for ( Exp ; Exp ; Exp ) Stmt'
p4397
sa.