(lp0
(dp1
S'Declarations'
p2
I2
sS'FunDefinition'
p3
I4
sS'Program'
p4
I5
sS'Declaration'
p5
I1
sS'ExternalDeclaration'
p6
I3
sS'TypeSpecifier'
p7
I6
sa(dp8
a(dp9
g6
I11
sg3
I4
sg7
I6
sg5
I1
sa(dp10
a(dp11
a(dp12
a(dp13
S'InitDeclarationList'
p14
I14
sS'FunDeclarator'
p15
I13
sS'InitDeclarator'
p16
I15
sS'Declarator'
p17
I12
sa(dp18
a(dp19
a(dp20
a(dp21
a(dp22
a(dp23
a(dp24
S'CompoundStmt'
p25
I18
sa(dp26
a(dp27
a(dp28
a(dp29
S'PrimaryExp'
p30
I29
sS'MultipExp'
p31
I27
sS'Initializer'
p32
I26
sS'RalExp'
p33
I30
sS'AssignExp'
p34
I25
sS'AddExp'
p35
I24
sS'PostfixExp'
p36
I28
sa(dp37
a(dp38
g30
I29
sg31
I27
sS'ExpStmt'
p39
I45
sS'JmpStmt'
p40
I47
sS'BlockItem'
p41
I40
sS'Stmt'
p42
I49
sS'BlockItemList'
p43
I41
sg33
I30
sS'SelectStmt'
p44
I48
sg7
I50
sg34
I39
sS'Exp'
p45
I44
sg5
I43
sg35
I24
sg36
I28
sg25
I42
sS'IterationStmt'
p46
I46
sa(dp47
g16
I59
sg17
I12
sa(dp48
a(dp49
S'ParamDeclaration'
p50
I61
sS'ParamList'
p51
I62
sg7
I63
sa(dp52
g35
I65
sg30
I68
sg36
I67
sg31
I66
sa(dp53
S'RalOp'
p54
I76
sa(dp55
a(dp56
a(dp57
a(dp58
S'AssignOp'
p59
I88
sa(dp60
a(dp61
a(dp62
g30
I29
sg36
I98
sa(dp63
g30
I104
sg31
I102
sg33
I105
sg34
I100
sg45
I101
sg35
I99
sg36
I103
sa(dp64
a(dp65
a(dp66
a(dp67
a(dp68
a(dp69
g30
I119
sS'InitializerList'
p70
I116
sg31
I117
sg32
I115
sg33
I120
sg34
I114
sg35
I113
sg36
I118
sa(dp71
a(dp72
g30
I29
sg31
I27
sg39
I45
sg40
I47
sg41
I40
sg42
I49
sg43
I129
sg33
I30
sg44
I48
sg7
I50
sg34
I39
sg45
I44
sg5
I43
sg35
I24
sg36
I28
sg25
I42
sg46
I46
sa(dp73
a(dp74
a(dp75
a(dp76
a(dp77
a(dp78
a(dp79
a(dp80
a(dp81
a(dp82
g14
I133
sg16
I15
sg17
I12
sa(dp83
a(dp84
a(dp85
a(dp86
g30
I29
sg31
I27
sg33
I30
sg34
I39
sg45
I136
sg35
I24
sg36
I28
sa(dp87
a(dp88
a(dp89
a(dp90
g30
I29
sg31
I27
sg39
I45
sg40
I47
sg41
I40
sg42
I49
sg43
I141
sg33
I30
sg44
I48
sg7
I50
sg34
I39
sg45
I44
sg5
I43
sg35
I24
sg36
I28
sg25
I42
sg46
I46
sa(dp91
a(dp92
a(dp93
a(dp94
a(dp95
a(dp96
a(dp97
a(dp98
a(dp99
a(dp100
a(dp101
g30
I68
sg36
I155
sa(dp102
g30
I104
sg31
I102
sg33
I105
sg34
I100
sg45
I156
sg35
I99
sg36
I103
sa(dp103
a(dp104
a(dp105
a(dp106
a(dp107
a(dp108
g35
I24
sg30
I158
sg36
I157
sg31
I27
sg33
I159
sa(dp109
a(dp110
g30
I158
sg36
I157
sg31
I167
sa(dp111
g30
I158
sg36
I157
sg31
I168
sa(dp112
a(dp113
a(dp114
a(dp115
a(dp116
a(dp117
g30
I158
sg36
I169
sa(dp118
g30
I158
sg36
I170
sa(dp119
g30
I158
sg36
I171
sa(dp120
g30
I29
sg31
I27
sg33
I30
sg34
I172
sg35
I24
sg36
I28
sa(dp121
g30
I104
sg31
I102
sg33
I105
sg34
I174
sg35
I99
sg36
I103
sS'ArgExpList'
p122
I173
sa(dp123
a(dp124
a(dp125
a(dp126
a(dp127
a(dp128
a(dp129
a(dp130
g35
I176
sg30
I68
sg36
I67
sg31
I66
sa(dp131
a(dp132
g54
I177
sa(dp133
a(dp134
a(dp135
a(dp136
g59
I185
sa(dp137
a(dp138
a(dp139
g30
I104
sg36
I190
sa(dp140
g30
I104
sg31
I102
sg33
I105
sg34
I100
sg45
I191
sg35
I99
sg36
I103
sa(dp141
a(dp142
a(dp143
a(dp144
a(dp145
a(dp146
g54
I192
sa(dp147
a(dp148
a(dp149
a(dp150
a(dp151
g59
I200
sa(dp152
a(dp153
a(dp154
g30
I119
sg36
I205
sa(dp155
g30
I104
sg31
I102
sg33
I105
sg34
I100
sg45
I206
sg35
I99
sg36
I103
sa(dp156
a(dp157
a(dp158
a(dp159
a(dp160
a(dp161
g30
I119
sg70
I207
sg31
I117
sg32
I115
sg33
I120
sg34
I114
sg35
I113
sg36
I118
sa(dp162
a(dp163
a(dp164
g30
I29
sg31
I27
sg33
I30
sg34
I208
sg35
I24
sg36
I28
sa(dp165
a(dp166
a(dp167
a(dp168
a(dp169
a(dp170
a(dp171
g30
I104
sg31
I102
sg33
I105
sg34
I100
sg45
I211
sg35
I99
sg36
I103
sa(dp172
g30
I29
sg31
I27
sg33
I30
sg34
I39
sg45
I212
sg35
I24
sg36
I28
sa(dp173
g30
I104
sg31
I102
sg33
I105
sg34
I100
sg45
I213
sg35
I99
sg36
I103
sa(dp174
a(dp175
a(dp176
g50
I215
sg7
I63
sa(dp177
a(dp178
g30
I68
sg36
I67
sg31
I216
sa(dp179
g30
I68
sg36
I67
sg31
I217
sa(dp180
a(dp181
g30
I68
sg36
I218
sa(dp182
g30
I68
sg36
I219
sa(dp183
g30
I68
sg36
I220
sa(dp184
g30
I104
sg31
I102
sg33
I105
sg34
I174
sg35
I99
sg36
I103
sg122
I221
sa(dp185
a(dp186
a(dp187
g35
I223
sg30
I68
sg36
I67
sg31
I66
sa(dp188
a(dp189
a(dp190
a(dp191
a(dp192
a(dp193
g30
I158
sg36
I229
sa(dp194
g30
I104
sg31
I102
sg33
I105
sg34
I100
sg45
I230
sg35
I99
sg36
I103
sa(dp195
a(dp196
a(dp197
a(dp198
a(dp199
a(dp200
a(dp201
a(dp202
a(dp203
a(dp204
a(dp205
a(dp206
a(dp207
a(dp208
a(dp209
a(dp210
g35
I99
sg30
I235
sg36
I234
sg31
I102
sg33
I236
sa(dp211
g30
I235
sg36
I234
sg31
I244
sa(dp212
g30
I235
sg36
I234
sg31
I245
sa(dp213
a(dp214
g30
I104
sg31
I102
sg33
I105
sg34
I246
sg35
I99
sg36
I103
sa(dp215
g30
I235
sg36
I247
sa(dp216
g30
I235
sg36
I248
sa(dp217
g30
I235
sg36
I249
sa(dp218
g30
I104
sg31
I102
sg33
I105
sg34
I250
sg35
I99
sg36
I103
sa(dp219
g30
I104
sg31
I102
sg33
I105
sg34
I174
sg35
I99
sg36
I103
sg122
I251
sa(dp220
a(dp221
a(dp222
g35
I253
sg30
I68
sg36
I67
sg31
I66
sa(dp223
a(dp224
a(dp225
g35
I113
sg30
I256
sg36
I255
sg31
I117
sg33
I257
sa(dp226
g30
I256
sg36
I255
sg31
I265
sa(dp227
g30
I256
sg36
I255
sg31
I266
sa(dp228
g30
I119
sg70
I267
sg31
I117
sg32
I115
sg33
I120
sg34
I114
sg35
I113
sg36
I118
sa(dp229
a(dp230
g30
I256
sg36
I268
sa(dp231
g30
I256
sg36
I269
sa(dp232
g30
I256
sg36
I270
sa(dp233
g30
I119
sg31
I117
sg33
I120
sg34
I271
sg35
I113
sg36
I118
sa(dp234
g30
I104
sg31
I102
sg33
I105
sg34
I174
sg35
I99
sg36
I103
sg122
I272
sa(dp235
a(dp236
a(dp237
g35
I274
sg30
I68
sg36
I67
sg31
I66
sa(dp238
a(dp239
a(dp240
a(dp241
a(dp242
a(dp243
a(dp244
a(dp245
a(dp246
a(dp247
a(dp248
a(dp249
a(dp250
a(dp251
a(dp252
a(dp253
a(dp254
a(dp255
a(dp256
a(dp257
a(dp258
g30
I104
sg31
I102
sg33
I105
sg34
I174
sg35
I99
sg36
I103
sg122
I282
sa(dp259
a(dp260
a(dp261
g35
I284
sg30
I68
sg36
I67
sg31
I66
sa(dp262
a(dp263
a(dp264
a(dp265
g30
I104
sg31
I102
sg33
I105
sg34
I286
sg35
I99
sg36
I103
sa(dp266
a(dp267
a(dp268
a(dp269
a(dp270
g30
I235
sg36
I291
sa(dp271
g30
I104
sg31
I102
sg33
I105
sg34
I100
sg45
I292
sg35
I99
sg36
I103
sa(dp272
a(dp273
a(dp274
a(dp275
a(dp276
a(dp277
a(dp278
a(dp279
a(dp280
a(dp281
a(dp282
a(dp283
a(dp284
a(dp285
a(dp286
a(dp287
a(dp288
a(dp289
a(dp290
a(dp291
g30
I256
sg36
I299
sa(dp292
g30
I104
sg31
I102
sg33
I105
sg34
I100
sg45
I300
sg35
I99
sg36
I103
sa(dp293
a(dp294
a(dp295
a(dp296
a(dp297
a(dp298
a(dp299
a(dp300
a(dp301
a(dp302
a(dp303
a(dp304
a(dp305
a(dp306
a(dp307
a(dp308
a(dp309
a(dp310
g30
I29
sg39
I305
sg40
I307
sg31
I27
sg42
I309
sg33
I30
sg44
I308
sg34
I39
sg45
I304
sg35
I24
sg36
I28
sg25
I303
sg46
I306
sa(dp311
g30
I29
sg31
I27
sg33
I30
sg34
I39
sg45
I318
sg35
I24
sg36
I28
sa(dp312
g30
I29
sg39
I45
sg40
I47
sg31
I27
sg42
I319
sg33
I30
sg44
I48
sg34
I39
sg45
I44
sg35
I24
sg36
I28
sg25
I42
sg46
I46
sa(dp313
a(dp314
a(dp315
a(dp316
a(dp317
a(dp318
a(dp319
a(dp320
g30
I104
sg31
I102
sg33
I105
sg34
I174
sg35
I99
sg36
I103
sg122
I322
sa(dp321
a(dp322
a(dp323
g35
I324
sg30
I68
sg36
I67
sg31
I66
sa(dp324
a(dp325
a(dp326
a(dp327
a(dp328
g30
I104
sg31
I102
sg33
I105
sg34
I174
sg35
I99
sg36
I103
sg122
I326
sa(dp329
a(dp330
a(dp331
g35
I328
sg30
I68
sg36
I67
sg31
I66
sa(dp332
a(dp333
a(dp334
a(dp335
a(dp336
a(dp337
a(dp338
a(dp339
a(dp340
a(dp341
a(dp342
a(dp343
a(dp344
a(dp345
a(dp346
g30
I29
sg31
I27
sg33
I30
sg34
I39
sg45
I334
sg35
I24
sg36
I28
sa(dp347
a(dp348
a(dp349
a(dp350
g30
I29
sg31
I27
sg39
I45
sg40
I47
sg41
I40
sg42
I49
sg43
I339
sg33
I30
sg44
I48
sg7
I50
sg34
I39
sg45
I44
sg5
I43
sg35
I24
sg36
I28
sg25
I42
sg46
I46
sa(dp351
a(dp352
a(dp353
a(dp354
a(dp355
a(dp356
a(dp357
a(dp358
a(dp359
a(dp360
a(dp361
a(dp362
a(dp363
a(dp364
g30
I29
sg39
I45
sg40
I47
sg31
I27
sg42
I345
sg33
I30
sg44
I48
sg34
I39
sg45
I44
sg35
I24
sg36
I28
sg25
I42
sg46
I46
sa(dp365
a(dp366
a(dp367
a(dp368
a(dp369
g30
I104
sg31
I102
sg33
I105
sg34
I100
sg45
I347
sg35
I99
sg36
I103
sa(dp370
g30
I29
sg31
I27
sg33
I30
sg34
I39
sg45
I348
sg35
I24
sg36
I28
sa(dp371
g30
I104
sg31
I102
sg33
I105
sg34
I100
sg45
I349
sg35
I99
sg36
I103
sa(dp372
a(dp373
g30
I104
sg31
I102
sg33
I105
sg34
I100
sg45
I351
sg35
I99
sg36
I103
sa(dp374
a(dp375
a(dp376
a(dp377
a(dp378
a(dp379
a(dp380
a(dp381
a(dp382
a(dp383
a(dp384
a(dp385
g30
I29
sg39
I45
sg40
I47
sg31
I27
sg42
I357
sg33
I30
sg44
I48
sg34
I39
sg45
I44
sg35
I24
sg36
I28
sg25
I42
sg46
I46
sa(dp386
g30
I29
sg39
I305
sg40
I307
sg31
I27
sg42
I358
sg33
I30
sg44
I308
sg34
I39
sg45
I304
sg35
I24
sg36
I28
sg25
I303
sg46
I306
sa(dp387
g30
I29
sg31
I27
sg33
I30
sg34
I39
sg45
I359
sg35
I24
sg36
I28
sa(dp388
g30
I29
sg39
I305
sg40
I307
sg31
I27
sg42
I360
sg33
I30
sg44
I308
sg34
I39
sg45
I304
sg35
I24
sg36
I28
sg25
I303
sg46
I306
sa(dp389
g30
I29
sg39
I45
sg40
I47
sg31
I27
sg42
I361
sg33
I30
sg44
I48
sg34
I39
sg45
I44
sg35
I24
sg36
I28
sg25
I42
sg46
I46
sa(dp390
a(dp391
a(dp392
a(dp393
a(dp394
a(dp395
g30
I29
sg39
I305
sg40
I307
sg31
I27
sg42
I364
sg33
I30
sg44
I308
sg34
I39
sg45
I304
sg35
I24
sg36
I28
sg25
I303
sg46
I306
sa(dp396
g30
I104
sg31
I102
sg33
I105
sg34
I100
sg45
I365
sg35
I99
sg36
I103
sa(dp397
a(dp398
a(dp399
g30
I29
sg39
I305
sg40
I307
sg31
I27
sg42
I368
sg33
I30
sg44
I308
sg34
I39
sg45
I304
sg35
I24
sg36
I28
sg25
I303
sg46
I306
sa(dp400
g30
I29
sg39
I305
sg40
I307
sg31
I27
sg42
I369
sg33
I30
sg44
I308
sg34
I39
sg45
I304
sg35
I24
sg36
I28
sg25
I303
sg46
I306
sa(dp401
a(dp402
a.